---
triple:          'arm64-apple-darwin'
binary-path:     '/Users/carlosdelgado/Desktop/Coding/CodeForces/Educational169/d'
relocations:
  - { offsetInCU: 0xE2, offset: 0xE2, size: 0x8, addend: 0x0, symName: __ZSt23__is_constant_evaluatedv, symObjAddr: 0x0, symBinAddr: 0x100003430, symSize: 0x8 }
  - { offsetInCU: 0xEA, offset: 0xEA, size: 0x8, addend: 0x0, symName: __ZSt19piecewise_construct, symObjAddr: 0x48F4, symBinAddr: 0x100008A6C, symSize: 0x0 }
  - { offsetInCU: 0x2A7C, offset: 0x2A7C, size: 0x8, addend: 0x0, symName: __ZSt19piecewise_construct, symObjAddr: 0x48F4, symBinAddr: 0x100008A6C, symSize: 0x0 }
  - { offsetInCU: 0x7192, offset: 0x7192, size: 0x8, addend: 0x0, symName: __ZStL8__ioinit, symObjAddr: 0x7A338, symBinAddr: 0x10001010E, symSize: 0x0 }
  - { offsetInCU: 0xA1FC, offset: 0xA1FC, size: 0x8, addend: 0x0, symName: __ZL4maxN, symObjAddr: 0x48F8, symBinAddr: 0x100008A70, symSize: 0x0 }
  - { offsetInCU: 0xE075, offset: 0xE075, size: 0x8, addend: 0x0, symName: __Z6uppersB5cxx11, symObjAddr: 0x7A340, symBinAddr: 0x100010110, symSize: 0x0 }
  - { offsetInCU: 0xE094, offset: 0xE094, size: 0x8, addend: 0x0, symName: __Z6lowersB5cxx11, symObjAddr: 0x7A378, symBinAddr: 0x100010148, symSize: 0x0 }
  - { offsetInCU: 0xFBFA, offset: 0xFBFA, size: 0x8, addend: 0x0, symName: __Z5typesB5cxx11, symObjAddr: 0x7A3B0, symBinAddr: 0x100010180, symSize: 0x0 }
  - { offsetInCU: 0xFC28, offset: 0xFC28, size: 0x8, addend: 0x0, symName: __Z1aB5cxx11, symObjAddr: 0x7A3C8, symBinAddr: 0x100010198, symSize: 0x0 }
  - { offsetInCU: 0x14EBC, offset: 0x14EBC, size: 0x8, addend: 0x0, symName: __ZNSt8__detail30__integer_to_chars_is_unsignedIjEE, symObjAddr: 0x48FC, symBinAddr: 0x100008A74, symSize: 0x0 }
  - { offsetInCU: 0x14ED6, offset: 0x14ED6, size: 0x8, addend: 0x0, symName: __ZNSt8__detail30__integer_to_chars_is_unsignedImEE, symObjAddr: 0x48FD, symBinAddr: 0x100008A75, symSize: 0x0 }
  - { offsetInCU: 0x14EF0, offset: 0x14EF0, size: 0x8, addend: 0x0, symName: __ZNSt8__detail30__integer_to_chars_is_unsignedIyEE, symObjAddr: 0x48FE, symBinAddr: 0x100008A76, symSize: 0x0 }
  - { offsetInCU: 0x14F2B, offset: 0x14F2B, size: 0x8, addend: 0x0, symName: __GLOBAL__sub_I_d.cpp, symObjAddr: 0x48E0, symBinAddr: 0x100007D10, symSize: 0x14 }
  - { offsetInCU: 0x14F33, offset: 0x14F33, size: 0x8, addend: 0x0, symName: __ZSt19piecewise_construct, symObjAddr: 0x48F4, symBinAddr: 0x100008A6C, symSize: 0x0 }
  - { offsetInCU: 0x14FA7, offset: 0x14FA7, size: 0x8, addend: 0x0, symName: __ZNSt6vectorINSt7__cxx1112basic_stringIcSt11char_traitsIcESaIcEEESaIS5_EED1Ev, symObjAddr: 0x4884, symBinAddr: 0x100007CB4, symSize: 0x5C }
  - { offsetInCU: 0x14FAF, offset: 0x14FAF, size: 0x8, addend: 0x0, symName: __GLOBAL__sub_I_d.cpp, symObjAddr: 0x48E0, symBinAddr: 0x100007D10, symSize: 0x14 }
  - { offsetInCU: 0x14FED, offset: 0x14FED, size: 0x8, addend: 0x0, symName: __Z41__static_initialization_and_destruction_0v, symObjAddr: 0x4780, symBinAddr: 0x100007BB0, symSize: 0x104 }
  - { offsetInCU: 0x14FF5, offset: 0x14FF5, size: 0x8, addend: 0x0, symName: __ZNSt6vectorINSt7__cxx1112basic_stringIcSt11char_traitsIcESaIcEEESaIS5_EED1Ev, symObjAddr: 0x4884, symBinAddr: 0x100007CB4, symSize: 0x5C }
  - { offsetInCU: 0x14FE5, offset: 0x14FE5, size: 0x8, addend: 0x0, symName: ___tcf_0, symObjAddr: 0x4738, symBinAddr: 0x100007B68, symSize: 0x48 }
  - { offsetInCU: 0x14FED, offset: 0x14FED, size: 0x8, addend: 0x0, symName: __Z41__static_initialization_and_destruction_0v, symObjAddr: 0x4780, symBinAddr: 0x100007BB0, symSize: 0x104 }
  - { offsetInCU: 0x150C7, offset: 0x150C7, size: 0x8, addend: 0x0, symName: __ZNSt13unordered_mapINSt7__cxx1112basic_stringIcSt11char_traitsIcESaIcEEESt3setIiSt4lessIiESaIiEESt4hashIS5_ESt8equal_toIS5_ESaISt4pairIKS5_SA_EEED1Ev, symObjAddr: 0x4718, symBinAddr: 0x100007B48, symSize: 0x20 }
  - { offsetInCU: 0x150CF, offset: 0x150CF, size: 0x8, addend: 0x0, symName: ___tcf_0, symObjAddr: 0x4738, symBinAddr: 0x100007B68, symSize: 0x48 }
  - { offsetInCU: 0x1505E, offset: 0x1505E, size: 0x8, addend: 0x0, symName: __ZNSt10_Head_baseILm0ERKNSt7__cxx1112basic_stringIcSt11char_traitsIcESaIcEEELb0EE7_M_headERS8_, symObjAddr: 0x4700, symBinAddr: 0x100007B30, symSize: 0x18 }
  - { offsetInCU: 0x15066, offset: 0x15066, size: 0x8, addend: 0x0, symName: __ZNSt13unordered_mapINSt7__cxx1112basic_stringIcSt11char_traitsIcESaIcEEESt3setIiSt4lessIiESaIiEESt4hashIS5_ESt8equal_toIS5_ESaISt4pairIKS5_SA_EEED1Ev, symObjAddr: 0x4718, symBinAddr: 0x100007B48, symSize: 0x20 }
  - { offsetInCU: 0x150DE, offset: 0x150DE, size: 0x8, addend: 0x0, symName: __ZNSt11_Tuple_implILm0EJRKNSt7__cxx1112basic_stringIcSt11char_traitsIcESaIcEEEEE7_M_headERS8_, symObjAddr: 0x46E4, symBinAddr: 0x100007B14, symSize: 0x1C }
  - { offsetInCU: 0x150E6, offset: 0x150E6, size: 0x8, addend: 0x0, symName: __ZNSt10_Head_baseILm0ERKNSt7__cxx1112basic_stringIcSt11char_traitsIcESaIcEEELb0EE7_M_headERS8_, symObjAddr: 0x4700, symBinAddr: 0x100007B30, symSize: 0x18 }
  - { offsetInCU: 0x151A8, offset: 0x151A8, size: 0x8, addend: 0x0, symName: __ZNSt20_Rb_tree_key_compareISt4lessIiEEC2Ev, symObjAddr: 0x46D0, symBinAddr: 0x100007B00, symSize: 0x14 }
  - { offsetInCU: 0x151B0, offset: 0x151B0, size: 0x8, addend: 0x0, symName: __ZNSt11_Tuple_implILm0EJRKNSt7__cxx1112basic_stringIcSt11char_traitsIcESaIcEEEEE7_M_headERS8_, symObjAddr: 0x46E4, symBinAddr: 0x100007B14, symSize: 0x1C }
  - { offsetInCU: 0x15276, offset: 0x15276, size: 0x8, addend: 0x0, symName: __ZSt12__get_helperILm0ERKNSt7__cxx1112basic_stringIcSt11char_traitsIcESaIcEEEJEERT0_RSt11_Tuple_implIXT_EJS8_DpT1_EE, symObjAddr: 0x46B4, symBinAddr: 0x100007AE4, symSize: 0x1C }
  - { offsetInCU: 0x1527E, offset: 0x1527E, size: 0x8, addend: 0x0, symName: __ZNSt20_Rb_tree_key_compareISt4lessIiEEC2Ev, symObjAddr: 0x46D0, symBinAddr: 0x100007B00, symSize: 0x14 }
  - { offsetInCU: 0x15226, offset: 0x15226, size: 0x8, addend: 0x0, symName: __ZNK9__gnu_cxx16__aligned_bufferISt4pairIKNSt7__cxx1112basic_stringIcSt11char_traitsIcESaIcEEESt3setIiSt4lessIiESaIiEEEE7_M_addrEv, symObjAddr: 0x46A0, symBinAddr: 0x100007AD0, symSize: 0x14 }
  - { offsetInCU: 0x1522E, offset: 0x1522E, size: 0x8, addend: 0x0, symName: __ZSt12__get_helperILm0ERKNSt7__cxx1112basic_stringIcSt11char_traitsIcESaIcEEEJEERT0_RSt11_Tuple_implIXT_EJS8_DpT1_EE, symObjAddr: 0x46B4, symBinAddr: 0x100007AE4, symSize: 0x1C }
  - { offsetInCU: 0x15259, offset: 0x15259, size: 0x8, addend: 0x0, symName: __ZNSt8_Rb_treeIiiSt9_IdentityIiESt4lessIiESaIiEE15_M_destroy_nodeEPSt13_Rb_tree_nodeIiE, symObjAddr: 0x4648, symBinAddr: 0x100007A78, symSize: 0x58 }
  - { offsetInCU: 0x15261, offset: 0x15261, size: 0x8, addend: 0x0, symName: __ZNK9__gnu_cxx16__aligned_bufferISt4pairIKNSt7__cxx1112basic_stringIcSt11char_traitsIcESaIcEEESt3setIiSt4lessIiESaIiEEEE7_M_addrEv, symObjAddr: 0x46A0, symBinAddr: 0x100007AD0, symSize: 0x14 }
  - { offsetInCU: 0x15300, offset: 0x15300, size: 0x8, addend: 0x0, symName: __ZNSt15__new_allocatorISt13_Rb_tree_nodeIiEE10deallocateEPS1_m, symObjAddr: 0x460C, symBinAddr: 0x100007A3C, symSize: 0x3C }
  - { offsetInCU: 0x15308, offset: 0x15308, size: 0x8, addend: 0x0, symName: __ZNSt8_Rb_treeIiiSt9_IdentityIiESt4lessIiESaIiEE15_M_destroy_nodeEPSt13_Rb_tree_nodeIiE, symObjAddr: 0x4648, symBinAddr: 0x100007A78, symSize: 0x58 }
  - { offsetInCU: 0x15359, offset: 0x15359, size: 0x8, addend: 0x0, symName: __ZN9__gnu_cxx16__aligned_membufIiE7_M_addrEv, symObjAddr: 0x45F8, symBinAddr: 0x100007A28, symSize: 0x14 }
  - { offsetInCU: 0x15361, offset: 0x15361, size: 0x8, addend: 0x0, symName: __ZNSt15__new_allocatorISt13_Rb_tree_nodeIiEE10deallocateEPS1_m, symObjAddr: 0x460C, symBinAddr: 0x100007A3C, symSize: 0x3C }
  - { offsetInCU: 0x153A5, offset: 0x153A5, size: 0x8, addend: 0x0, symName: __ZNSt15__new_allocatorIPNSt8__detail15_Hash_node_baseEE8allocateEmPKv, symObjAddr: 0x457C, symBinAddr: 0x1000079AC, symSize: 0x7C }
  - { offsetInCU: 0x153AD, offset: 0x153AD, size: 0x8, addend: 0x0, symName: __ZN9__gnu_cxx16__aligned_membufIiE7_M_addrEv, symObjAddr: 0x45F8, symBinAddr: 0x100007A28, symSize: 0x14 }
  - { offsetInCU: 0x15491, offset: 0x15491, size: 0x8, addend: 0x0, symName: __ZNSt8_Rb_treeIiiSt9_IdentityIiESt4lessIiESaIiEE13_Rb_tree_implIS3_Lb1EEC1Ev, symObjAddr: 0x4538, symBinAddr: 0x100007968, symSize: 0x44 }
  - { offsetInCU: 0x15499, offset: 0x15499, size: 0x8, addend: 0x0, symName: __ZNSt15__new_allocatorIPNSt8__detail15_Hash_node_baseEE8allocateEmPKv, symObjAddr: 0x457C, symBinAddr: 0x1000079AC, symSize: 0x7C }
  - { offsetInCU: 0x1555C, offset: 0x1555C, size: 0x8, addend: 0x0, symName: __ZSt7forwardIRKNSt7__cxx1112basic_stringIcSt11char_traitsIcESaIcEEEEOT_RNSt16remove_referenceIS8_E4typeE, symObjAddr: 0x4524, symBinAddr: 0x100007954, symSize: 0x14 }
  - { offsetInCU: 0x15564, offset: 0x15564, size: 0x8, addend: 0x0, symName: __ZNSt8_Rb_treeIiiSt9_IdentityIiESt4lessIiESaIiEE13_Rb_tree_implIS3_Lb1EEC1Ev, symObjAddr: 0x4538, symBinAddr: 0x100007968, symSize: 0x44 }
  - { offsetInCU: 0x155F1, offset: 0x155F1, size: 0x8, addend: 0x0, symName: __ZSt3getILm0EJRKNSt7__cxx1112basic_stringIcSt11char_traitsIcESaIcEEEEERNSt13tuple_elementIXT_ESt5tupleIJDpT0_EEE4typeERSC_, symObjAddr: 0x4508, symBinAddr: 0x100007938, symSize: 0x1C }
  - { offsetInCU: 0x155F9, offset: 0x155F9, size: 0x8, addend: 0x0, symName: __ZSt7forwardIRKNSt7__cxx1112basic_stringIcSt11char_traitsIcESaIcEEEEOT_RNSt16remove_referenceIS8_E4typeE, symObjAddr: 0x4524, symBinAddr: 0x100007954, symSize: 0x14 }
  - { offsetInCU: 0x1556E, offset: 0x1556E, size: 0x8, addend: 0x0, symName: __ZNK9__gnu_cxx16__aligned_bufferISt4pairIKNSt7__cxx1112basic_stringIcSt11char_traitsIcESaIcEEESt3setIiSt4lessIiESaIiEEEE6_M_ptrEv, symObjAddr: 0x44EC, symBinAddr: 0x10000791C, symSize: 0x1C }
  - { offsetInCU: 0x15576, offset: 0x15576, size: 0x8, addend: 0x0, symName: __ZSt3getILm0EJRKNSt7__cxx1112basic_stringIcSt11char_traitsIcESaIcEEEEERNSt13tuple_elementIXT_ESt5tupleIJDpT0_EEE4typeERSC_, symObjAddr: 0x4508, symBinAddr: 0x100007938, symSize: 0x1C }
  - { offsetInCU: 0x1559D, offset: 0x1559D, size: 0x8, addend: 0x0, symName: __ZNSt8_Rb_treeIiiSt9_IdentityIiESt4lessIiESaIiEE12_M_drop_nodeEPSt13_Rb_tree_nodeIiE, symObjAddr: 0x44B8, symBinAddr: 0x1000078E8, symSize: 0x34 }
  - { offsetInCU: 0x155A5, offset: 0x155A5, size: 0x8, addend: 0x0, symName: __ZNK9__gnu_cxx16__aligned_bufferISt4pairIKNSt7__cxx1112basic_stringIcSt11char_traitsIcESaIcEEESt3setIiSt4lessIiESaIiEEEE6_M_ptrEv, symObjAddr: 0x44EC, symBinAddr: 0x10000791C, symSize: 0x1C }
  - { offsetInCU: 0x15638, offset: 0x15638, size: 0x8, addend: 0x0, symName: __ZNSt15__new_allocatorISt13_Rb_tree_nodeIiEED2Ev, symObjAddr: 0x44A4, symBinAddr: 0x1000078D4, symSize: 0x14 }
  - { offsetInCU: 0x15640, offset: 0x15640, size: 0x8, addend: 0x0, symName: __ZNSt8_Rb_treeIiiSt9_IdentityIiESt4lessIiESaIiEE12_M_drop_nodeEPSt13_Rb_tree_nodeIiE, symObjAddr: 0x44B8, symBinAddr: 0x1000078E8, symSize: 0x34 }
  - { offsetInCU: 0x15732, offset: 0x15732, size: 0x8, addend: 0x0, symName: __ZN9__gnu_cxx16__aligned_membufIiE6_M_ptrEv, symObjAddr: 0x4488, symBinAddr: 0x1000078B8, symSize: 0x1C }
  - { offsetInCU: 0x1573A, offset: 0x1573A, size: 0x8, addend: 0x0, symName: __ZNSt15__new_allocatorISt13_Rb_tree_nodeIiEED2Ev, symObjAddr: 0x44A4, symBinAddr: 0x1000078D4, symSize: 0x14 }
  - { offsetInCU: 0x15761, offset: 0x15761, size: 0x8, addend: 0x0, symName: __ZNSt15__new_allocatorISt13_Rb_tree_nodeIiEE8allocateEmPKv, symObjAddr: 0x43F8, symBinAddr: 0x100007828, symSize: 0x90 }
  - { offsetInCU: 0x15769, offset: 0x15769, size: 0x8, addend: 0x0, symName: __ZN9__gnu_cxx16__aligned_membufIiE6_M_ptrEv, symObjAddr: 0x4488, symBinAddr: 0x1000078B8, symSize: 0x1C }
  - { offsetInCU: 0x15853, offset: 0x15853, size: 0x8, addend: 0x0, symName: __ZSt12__to_addressIPNSt8__detail15_Hash_node_baseEEPT_S4_, symObjAddr: 0x43E4, symBinAddr: 0x100007814, symSize: 0x14 }
  - { offsetInCU: 0x1585B, offset: 0x1585B, size: 0x8, addend: 0x0, symName: __ZNSt15__new_allocatorISt13_Rb_tree_nodeIiEE8allocateEmPKv, symObjAddr: 0x43F8, symBinAddr: 0x100007828, symSize: 0x90 }
  - { offsetInCU: 0x15990, offset: 0x15990, size: 0x8, addend: 0x0, symName: __ZNSt4pairIKNSt7__cxx1112basic_stringIcSt11char_traitsIcESaIcEEESt3setIiSt4lessIiESaIiEEEC1IJRS6_EJLm0EEJEJEEERSt5tupleIJDpT_EERSF_IJDpT1_EESt12_Index_tupleIJXspT0_EEESO_IJXspT2_EEE, symObjAddr: 0x4378, symBinAddr: 0x1000077A8, symSize: 0x6C }
  - { offsetInCU: 0x15998, offset: 0x15998, size: 0x8, addend: 0x0, symName: __ZSt12__to_addressIPNSt8__detail15_Hash_node_baseEEPT_S4_, symObjAddr: 0x43E4, symBinAddr: 0x100007814, symSize: 0x14 }
  - { offsetInCU: 0x159A0, offset: 0x159A0, size: 0x8, addend: 0x0, symName: __ZNSt3setIiSt4lessIiESaIiEEC1Ev, symObjAddr: 0x4358, symBinAddr: 0x100007788, symSize: 0x20 }
  - { offsetInCU: 0x159A8, offset: 0x159A8, size: 0x8, addend: 0x0, symName: __ZNSt4pairIKNSt7__cxx1112basic_stringIcSt11char_traitsIcESaIcEEESt3setIiSt4lessIiESaIiEEEC1IJRS6_EJLm0EEJEJEEERSt5tupleIJDpT_EERSF_IJDpT1_EESt12_Index_tupleIJXspT0_EEESO_IJXspT2_EEE, symObjAddr: 0x4378, symBinAddr: 0x1000077A8, symSize: 0x6C }
  - { offsetInCU: 0x159FC, offset: 0x159FC, size: 0x8, addend: 0x0, symName: __ZNSt8_Rb_treeIiiSt9_IdentityIiESt4lessIiESaIiEEC1Ev, symObjAddr: 0x4338, symBinAddr: 0x100007768, symSize: 0x20 }
  - { offsetInCU: 0x15A04, offset: 0x15A04, size: 0x8, addend: 0x0, symName: __ZNSt3setIiSt4lessIiESaIiEEC1Ev, symObjAddr: 0x4358, symBinAddr: 0x100007788, symSize: 0x20 }
  - { offsetInCU: 0x15A85, offset: 0x15A85, size: 0x8, addend: 0x0, symName: __ZSteqIcSt11char_traitsIcESaIcEEbRKNSt7__cxx1112basic_stringIT_T0_T1_EESA_, symObjAddr: 0x42B8, symBinAddr: 0x1000076E8, symSize: 0x80 }
  - { offsetInCU: 0x15A8D, offset: 0x15A8D, size: 0x8, addend: 0x0, symName: __ZNSt8_Rb_treeIiiSt9_IdentityIiESt4lessIiESaIiEEC1Ev, symObjAddr: 0x4338, symBinAddr: 0x100007768, symSize: 0x20 }
  - { offsetInCU: 0x15B50, offset: 0x15B50, size: 0x8, addend: 0x0, symName: __ZSt7forwardIRKSt4pairIKNSt7__cxx1112basic_stringIcSt11char_traitsIcESaIcEEESt3setIiSt4lessIiESaIiEEEEOT_RNSt16remove_referenceISG_E4typeE, symObjAddr: 0x42A4, symBinAddr: 0x1000076D4, symSize: 0x14 }
  - { offsetInCU: 0x15B58, offset: 0x15B58, size: 0x8, addend: 0x0, symName: __ZSteqIcSt11char_traitsIcESaIcEEbRKNSt7__cxx1112basic_stringIT_T0_T1_EESA_, symObjAddr: 0x42B8, symBinAddr: 0x1000076E8, symSize: 0x80 }
  - { offsetInCU: 0x15AC3, offset: 0x15AC3, size: 0x8, addend: 0x0, symName: __ZNKSt8__detail21_Hash_node_value_baseISt4pairIKNSt7__cxx1112basic_stringIcSt11char_traitsIcESaIcEEESt3setIiSt4lessIiESaIiEEEE9_M_valptrEv, symObjAddr: 0x4288, symBinAddr: 0x1000076B8, symSize: 0x1C }
  - { offsetInCU: 0x15ACB, offset: 0x15ACB, size: 0x8, addend: 0x0, symName: __ZSt7forwardIRKSt4pairIKNSt7__cxx1112basic_stringIcSt11char_traitsIcESaIcEEESt3setIiSt4lessIiESaIiEEEEOT_RNSt16remove_referenceISG_E4typeE, symObjAddr: 0x42A4, symBinAddr: 0x1000076D4, symSize: 0x14 }
  - { offsetInCU: 0x15AF2, offset: 0x15AF2, size: 0x8, addend: 0x0, symName: __ZNKSt8__detail21_Hashtable_ebo_helperILi0ESt8equal_toINSt7__cxx1112basic_stringIcSt11char_traitsIcESaIcEEEELb1EE7_M_cgetEv, symObjAddr: 0x4274, symBinAddr: 0x1000076A4, symSize: 0x14 }
  - { offsetInCU: 0x15AFA, offset: 0x15AFA, size: 0x8, addend: 0x0, symName: __ZNKSt8__detail21_Hash_node_value_baseISt4pairIKNSt7__cxx1112basic_stringIcSt11char_traitsIcESaIcEEESt3setIiSt4lessIiESaIiEEEE9_M_valptrEv, symObjAddr: 0x4288, symBinAddr: 0x1000076B8, symSize: 0x1C }
  - { offsetInCU: 0x15C26, offset: 0x15C26, size: 0x8, addend: 0x0, symName: __ZSt11__addressofINSt8__detail10_Hash_nodeISt4pairIKNSt7__cxx1112basic_stringIcSt11char_traitsIcESaIcEEESt3setIiSt4lessIiESaIiEEELb1EEEEPT_RSH_, symObjAddr: 0x4260, symBinAddr: 0x100007690, symSize: 0x14 }
  - { offsetInCU: 0x15C2E, offset: 0x15C2E, size: 0x8, addend: 0x0, symName: __ZNKSt8__detail21_Hashtable_ebo_helperILi0ESt8equal_toINSt7__cxx1112basic_stringIcSt11char_traitsIcESaIcEEEELb1EE7_M_cgetEv, symObjAddr: 0x4274, symBinAddr: 0x1000076A4, symSize: 0x14 }
  - { offsetInCU: 0x15B6B, offset: 0x15B6B, size: 0x8, addend: 0x0, symName: __ZNSt8_Rb_treeIiiSt9_IdentityIiESt4lessIiESaIiEE8_M_eraseEPSt13_Rb_tree_nodeIiE, symObjAddr: 0x41FC, symBinAddr: 0x10000762C, symSize: 0x64 }
  - { offsetInCU: 0x15B73, offset: 0x15B73, size: 0x8, addend: 0x0, symName: __ZSt11__addressofINSt8__detail10_Hash_nodeISt4pairIKNSt7__cxx1112basic_stringIcSt11char_traitsIcESaIcEEESt3setIiSt4lessIiESaIiEEELb1EEEEPT_RSH_, symObjAddr: 0x4260, symBinAddr: 0x100007690, symSize: 0x14 }
  - { offsetInCU: 0x15C70, offset: 0x15C70, size: 0x8, addend: 0x0, symName: __ZSt8_DestroyINSt7__cxx1112basic_stringIcSt11char_traitsIcESaIcEEEEvPT_, symObjAddr: 0x41DC, symBinAddr: 0x10000760C, symSize: 0x20 }
  - { offsetInCU: 0x15C78, offset: 0x15C78, size: 0x8, addend: 0x0, symName: __ZNSt8_Rb_treeIiiSt9_IdentityIiESt4lessIiESaIiEE8_M_eraseEPSt13_Rb_tree_nodeIiE, symObjAddr: 0x41FC, symBinAddr: 0x10000762C, symSize: 0x64 }
  - { offsetInCU: 0x15D31, offset: 0x15D31, size: 0x8, addend: 0x0, symName: __ZSt19__relocate_object_aINSt7__cxx1112basic_stringIcSt11char_traitsIcESaIcEEES5_SaIS5_EEvPT_PT0_RT1_, symObjAddr: 0x410C, symBinAddr: 0x10000753C, symSize: 0xD0 }
  - { offsetInCU: 0x15D39, offset: 0x15D39, size: 0x8, addend: 0x0, symName: __ZSt8_DestroyINSt7__cxx1112basic_stringIcSt11char_traitsIcESaIcEEEEvPT_, symObjAddr: 0x41DC, symBinAddr: 0x10000760C, symSize: 0x20 }
  - { offsetInCU: 0x15E2A, offset: 0x15E2A, size: 0x8, addend: 0x0, symName: __ZSt11__addressofINSt7__cxx1112basic_stringIcSt11char_traitsIcESaIcEEEEPT_RS6_, symObjAddr: 0x40F8, symBinAddr: 0x100007528, symSize: 0x14 }
  - { offsetInCU: 0x15E32, offset: 0x15E32, size: 0x8, addend: 0x0, symName: __ZSt19__relocate_object_aINSt7__cxx1112basic_stringIcSt11char_traitsIcESaIcEEES5_SaIS5_EEvPT_PT0_RT1_, symObjAddr: 0x410C, symBinAddr: 0x10000753C, symSize: 0xD0 }
  - { offsetInCU: 0x15E80, offset: 0x15E80, size: 0x8, addend: 0x0, symName: __ZNSt8_Rb_treeIiiSt9_IdentityIiESt4lessIiESaIiEE11_M_put_nodeEPSt13_Rb_tree_nodeIiE, symObjAddr: 0x40AC, symBinAddr: 0x1000074DC, symSize: 0x4C }
  - { offsetInCU: 0x15E88, offset: 0x15E88, size: 0x8, addend: 0x0, symName: __ZSt11__addressofINSt7__cxx1112basic_stringIcSt11char_traitsIcESaIcEEEEPT_RS6_, symObjAddr: 0x40F8, symBinAddr: 0x100007528, symSize: 0x14 }
  - { offsetInCU: 0x15F5A, offset: 0x15F5A, size: 0x8, addend: 0x0, symName: __ZNSt13_Rb_tree_nodeIiE9_M_valptrEv, symObjAddr: 0x408C, symBinAddr: 0x1000074BC, symSize: 0x20 }
  - { offsetInCU: 0x15F62, offset: 0x15F62, size: 0x8, addend: 0x0, symName: __ZNSt8_Rb_treeIiiSt9_IdentityIiESt4lessIiESaIiEE11_M_put_nodeEPSt13_Rb_tree_nodeIiE, symObjAddr: 0x40AC, symBinAddr: 0x1000074DC, symSize: 0x4C }
  - { offsetInCU: 0x15FB6, offset: 0x15FB6, size: 0x8, addend: 0x0, symName: __ZNSt8_Rb_treeIiiSt9_IdentityIiESt4lessIiESaIiEE21_M_get_Node_allocatorEv, symObjAddr: 0x4078, symBinAddr: 0x1000074A8, symSize: 0x14 }
  - { offsetInCU: 0x15FBE, offset: 0x15FBE, size: 0x8, addend: 0x0, symName: __ZNSt13_Rb_tree_nodeIiE9_M_valptrEv, symObjAddr: 0x408C, symBinAddr: 0x1000074BC, symSize: 0x20 }
  - { offsetInCU: 0x15FE5, offset: 0x15FE5, size: 0x8, addend: 0x0, symName: __ZNSt8__detail16_Hashtable_allocISaINS_10_Hash_nodeISt4pairIKNSt7__cxx1112basic_stringIcSt11char_traitsIcESaIcEEESt3setIiSt4lessIiESaIiEEELb1EEEEE19_M_allocate_bucketsEm, symObjAddr: 0x3FC0, symBinAddr: 0x1000073F0, symSize: 0xB8 }
  - { offsetInCU: 0x15FED, offset: 0x15FED, size: 0x8, addend: 0x0, symName: __ZNSt8_Rb_treeIiiSt9_IdentityIiESt4lessIiESaIiEE21_M_get_Node_allocatorEv, symObjAddr: 0x4078, symBinAddr: 0x1000074A8, symSize: 0x14 }
  - { offsetInCU: 0x16226, offset: 0x16226, size: 0x8, addend: 0x0, symName: __ZNSt4pairIKNSt7__cxx1112basic_stringIcSt11char_traitsIcESaIcEEESt3setIiSt4lessIiESaIiEEEC1IJRS6_EJEEESt21piecewise_construct_tSt5tupleIJDpT_EESG_IJDpT0_EE, symObjAddr: 0x3F84, symBinAddr: 0x1000073B4, symSize: 0x3C }
  - { offsetInCU: 0x1622E, offset: 0x1622E, size: 0x8, addend: 0x0, symName: __ZNSt8__detail16_Hashtable_allocISaINS_10_Hash_nodeISt4pairIKNSt7__cxx1112basic_stringIcSt11char_traitsIcESaIcEEESt3setIiSt4lessIiESaIiEEELb1EEEEE19_M_allocate_bucketsEm, symObjAddr: 0x3FC0, symBinAddr: 0x1000073F0, symSize: 0xB8 }
  - { offsetInCU: 0x16273, offset: 0x16273, size: 0x8, addend: 0x0, symName: __ZNSt11_Tuple_implILm0EJRKNSt7__cxx1112basic_stringIcSt11char_traitsIcESaIcEEEEEC2EOS8_, symObjAddr: 0x3F5C, symBinAddr: 0x10000738C, symSize: 0x28 }
  - { offsetInCU: 0x1627B, offset: 0x1627B, size: 0x8, addend: 0x0, symName: __ZNSt4pairIKNSt7__cxx1112basic_stringIcSt11char_traitsIcESaIcEEESt3setIiSt4lessIiESaIiEEEC1IJRS6_EJEEESt21piecewise_construct_tSt5tupleIJDpT_EESG_IJDpT0_EE, symObjAddr: 0x3F84, symBinAddr: 0x1000073B4, symSize: 0x3C }
  - { offsetInCU: 0x1626E, offset: 0x1626E, size: 0x8, addend: 0x0, symName: __ZNKSt8equal_toINSt7__cxx1112basic_stringIcSt11char_traitsIcESaIcEEEEclERKS5_S8_, symObjAddr: 0x3F30, symBinAddr: 0x100007360, symSize: 0x2C }
  - { offsetInCU: 0x16276, offset: 0x16276, size: 0x8, addend: 0x0, symName: __ZNSt11_Tuple_implILm0EJRKNSt7__cxx1112basic_stringIcSt11char_traitsIcESaIcEEEEEC2EOS8_, symObjAddr: 0x3F5C, symBinAddr: 0x10000738C, symSize: 0x28 }
  - { offsetInCU: 0x162D8, offset: 0x162D8, size: 0x8, addend: 0x0, symName: __ZNKSt8__detail10_Select1stclIRKSt4pairIKNSt7__cxx1112basic_stringIcSt11char_traitsIcESaIcEEESt3setIiSt4lessIiESaIiEEEEEONS0_10__1st_typeIT_E4typeEOSJ_, symObjAddr: 0x3F10, symBinAddr: 0x100007340, symSize: 0x20 }
  - { offsetInCU: 0x162E0, offset: 0x162E0, size: 0x8, addend: 0x0, symName: __ZNKSt8equal_toINSt7__cxx1112basic_stringIcSt11char_traitsIcESaIcEEEEclERKS5_S8_, symObjAddr: 0x3F30, symBinAddr: 0x100007360, symSize: 0x2C }
  - { offsetInCU: 0x16327, offset: 0x16327, size: 0x8, addend: 0x0, symName: __ZNKSt8__detail21_Hash_node_value_baseISt4pairIKNSt7__cxx1112basic_stringIcSt11char_traitsIcESaIcEEESt3setIiSt4lessIiESaIiEEEE4_M_vEv, symObjAddr: 0x3EF4, symBinAddr: 0x100007324, symSize: 0x1C }
  - { offsetInCU: 0x1632F, offset: 0x1632F, size: 0x8, addend: 0x0, symName: __ZNKSt8__detail10_Select1stclIRKSt4pairIKNSt7__cxx1112basic_stringIcSt11char_traitsIcESaIcEEESt3setIiSt4lessIiESaIiEEEEEONS0_10__1st_typeIT_E4typeEOSJ_, symObjAddr: 0x3F10, symBinAddr: 0x100007340, symSize: 0x20 }
  - { offsetInCU: 0x16356, offset: 0x16356, size: 0x8, addend: 0x0, symName: __ZNKSt8__detail15_Hashtable_baseINSt7__cxx1112basic_stringIcSt11char_traitsIcESaIcEEESt4pairIKS6_St3setIiSt4lessIiESaIiEEENS_10_Select1stESt8equal_toIS6_ESt4hashIS6_ENS_18_Mod_range_hashingENS_20_Default_ranged_hashENS_17_Hashtable_traitsILb1ELb0ELb1EEEE5_M_eqEv, symObjAddr: 0x3ED8, symBinAddr: 0x100007308, symSize: 0x1C }
  - { offsetInCU: 0x1635E, offset: 0x1635E, size: 0x8, addend: 0x0, symName: __ZNKSt8__detail21_Hash_node_value_baseISt4pairIKNSt7__cxx1112basic_stringIcSt11char_traitsIcESaIcEEESt3setIiSt4lessIiESaIiEEEE4_M_vEv, symObjAddr: 0x3EF4, symBinAddr: 0x100007324, symSize: 0x1C }
  - { offsetInCU: 0x163F0, offset: 0x163F0, size: 0x8, addend: 0x0, symName: __ZSt11__addressofIPNSt8__detail15_Hash_node_baseEEPT_RS3_, symObjAddr: 0x3EC4, symBinAddr: 0x1000072F4, symSize: 0x14 }
  - { offsetInCU: 0x163F8, offset: 0x163F8, size: 0x8, addend: 0x0, symName: __ZNKSt8__detail15_Hashtable_baseINSt7__cxx1112basic_stringIcSt11char_traitsIcESaIcEEESt4pairIKS6_St3setIiSt4lessIiESaIiEEENS_10_Select1stESt8equal_toIS6_ESt4hashIS6_ENS_18_Mod_range_hashingENS_20_Default_ranged_hashENS_17_Hashtable_traitsILb1ELb0ELb1EEEE5_M_eqEv, symObjAddr: 0x3ED8, symBinAddr: 0x100007308, symSize: 0x1C }
  - { offsetInCU: 0x164CF, offset: 0x164CF, size: 0x8, addend: 0x0, symName: __ZSt9addressofINSt8__detail10_Hash_nodeISt4pairIKNSt7__cxx1112basic_stringIcSt11char_traitsIcESaIcEEESt3setIiSt4lessIiESaIiEEELb1EEEEPT_RSH_, symObjAddr: 0x3EA8, symBinAddr: 0x1000072D8, symSize: 0x1C }
  - { offsetInCU: 0x164D7, offset: 0x164D7, size: 0x8, addend: 0x0, symName: __ZSt11__addressofIPNSt8__detail15_Hash_node_baseEEPT_RS3_, symObjAddr: 0x3EC4, symBinAddr: 0x1000072F4, symSize: 0x14 }
  - { offsetInCU: 0x16475, offset: 0x16475, size: 0x8, addend: 0x0, symName: __ZNSt8_Rb_treeIiiSt9_IdentityIiESt4lessIiESaIiEED1Ev, symObjAddr: 0x3E74, symBinAddr: 0x1000072A4, symSize: 0x34 }
  - { offsetInCU: 0x1647D, offset: 0x1647D, size: 0x8, addend: 0x0, symName: __ZSt9addressofINSt8__detail10_Hash_nodeISt4pairIKNSt7__cxx1112basic_stringIcSt11char_traitsIcESaIcEEESt3setIiSt4lessIiESaIiEEELb1EEEEPT_RSH_, symObjAddr: 0x3EA8, symBinAddr: 0x1000072D8, symSize: 0x1C }
  - { offsetInCU: 0x164E7, offset: 0x164E7, size: 0x8, addend: 0x0, symName: __ZNSt8_Rb_treeIiiSt9_IdentityIiESt4lessIiESaIiEE13_Rb_tree_implIS3_Lb1EED1Ev, symObjAddr: 0x3E48, symBinAddr: 0x100007278, symSize: 0x2C }
  - { offsetInCU: 0x164EF, offset: 0x164EF, size: 0x8, addend: 0x0, symName: __ZNSt8_Rb_treeIiiSt9_IdentityIiESt4lessIiESaIiEED1Ev, symObjAddr: 0x3E74, symBinAddr: 0x1000072A4, symSize: 0x34 }
  - { offsetInCU: 0x164EE, offset: 0x164EE, size: 0x8, addend: 0x0, symName: __ZNSt12_Destroy_auxILb0EE9__destroyIPNSt7__cxx1112basic_stringIcSt11char_traitsIcESaIcEEEEEvT_S9_, symObjAddr: 0x3DFC, symBinAddr: 0x10000722C, symSize: 0x4C }
  - { offsetInCU: 0x164F6, offset: 0x164F6, size: 0x8, addend: 0x0, symName: __ZNSt8_Rb_treeIiiSt9_IdentityIiESt4lessIiESaIiEE13_Rb_tree_implIS3_Lb1EED1Ev, symObjAddr: 0x3E48, symBinAddr: 0x100007278, symSize: 0x2C }
  - { offsetInCU: 0x16632, offset: 0x16632, size: 0x8, addend: 0x0, symName: __ZSt14__relocate_a_1IPNSt7__cxx1112basic_stringIcSt11char_traitsIcESaIcEEES6_SaIS5_EET0_T_S9_S8_RT1_, symObjAddr: 0x3D78, symBinAddr: 0x1000071A8, symSize: 0x84 }
  - { offsetInCU: 0x1663A, offset: 0x1663A, size: 0x8, addend: 0x0, symName: __ZNSt12_Destroy_auxILb0EE9__destroyIPNSt7__cxx1112basic_stringIcSt11char_traitsIcESaIcEEEEEvT_S9_, symObjAddr: 0x3DFC, symBinAddr: 0x10000722C, symSize: 0x4C }
  - { offsetInCU: 0x16679, offset: 0x16679, size: 0x8, addend: 0x0, symName: __ZSt12__niter_baseIPNSt7__cxx1112basic_stringIcSt11char_traitsIcESaIcEEEET_S7_, symObjAddr: 0x3D64, symBinAddr: 0x100007194, symSize: 0x14 }
  - { offsetInCU: 0x16681, offset: 0x16681, size: 0x8, addend: 0x0, symName: __ZSt14__relocate_a_1IPNSt7__cxx1112basic_stringIcSt11char_traitsIcESaIcEEES6_SaIS5_EET0_T_S9_S8_RT1_, symObjAddr: 0x3D78, symBinAddr: 0x1000071A8, symSize: 0x84 }
  - { offsetInCU: 0x16641, offset: 0x16641, size: 0x8, addend: 0x0, symName: __ZNSt15__new_allocatorINSt7__cxx1112basic_stringIcSt11char_traitsIcESaIcEEEE8allocateEmPKv, symObjAddr: 0x3CE8, symBinAddr: 0x100007118, symSize: 0x7C }
  - { offsetInCU: 0x16649, offset: 0x16649, size: 0x8, addend: 0x0, symName: __ZSt12__niter_baseIPNSt7__cxx1112basic_stringIcSt11char_traitsIcESaIcEEEET_S7_, symObjAddr: 0x3D64, symBinAddr: 0x100007194, symSize: 0x14 }
  - { offsetInCU: 0x166C7, offset: 0x166C7, size: 0x8, addend: 0x0, symName: __ZNKSt12_Vector_baseINSt7__cxx1112basic_stringIcSt11char_traitsIcESaIcEEESaIS5_EE19_M_get_Tp_allocatorEv, symObjAddr: 0x3CD4, symBinAddr: 0x100007104, symSize: 0x14 }
  - { offsetInCU: 0x166CF, offset: 0x166CF, size: 0x8, addend: 0x0, symName: __ZNSt15__new_allocatorINSt7__cxx1112basic_stringIcSt11char_traitsIcESaIcEEEE8allocateEmPKv, symObjAddr: 0x3CE8, symBinAddr: 0x100007118, symSize: 0x7C }
  - { offsetInCU: 0x166F6, offset: 0x166F6, size: 0x8, addend: 0x0, symName: __ZNSt6vectorINSt7__cxx1112basic_stringIcSt11char_traitsIcESaIcEEESaIS5_EE11_S_max_sizeERKS6_, symObjAddr: 0x3C80, symBinAddr: 0x1000070B0, symSize: 0x54 }
  - { offsetInCU: 0x166FE, offset: 0x166FE, size: 0x8, addend: 0x0, symName: __ZNKSt12_Vector_baseINSt7__cxx1112basic_stringIcSt11char_traitsIcESaIcEEESaIS5_EE19_M_get_Tp_allocatorEv, symObjAddr: 0x3CD4, symBinAddr: 0x100007104, symSize: 0x14 }
  - { offsetInCU: 0x167C2, offset: 0x167C2, size: 0x8, addend: 0x0, symName: __ZNSt8_Rb_treeIiiSt9_IdentityIiESt4lessIiESaIiEE17_M_construct_nodeIJiEEEvPSt13_Rb_tree_nodeIiEDpOT_, symObjAddr: 0x3BD0, symBinAddr: 0x100007000, symSize: 0xB0 }
  - { offsetInCU: 0x167CA, offset: 0x167CA, size: 0x8, addend: 0x0, symName: __ZNSt6vectorINSt7__cxx1112basic_stringIcSt11char_traitsIcESaIcEEESaIS5_EE11_S_max_sizeERKS6_, symObjAddr: 0x3C80, symBinAddr: 0x1000070B0, symSize: 0x54 }
  - { offsetInCU: 0x168A4, offset: 0x168A4, size: 0x8, addend: 0x0, symName: __ZNSt8_Rb_treeIiiSt9_IdentityIiESt4lessIiESaIiEE17_M_construct_nodeIJRKiEEEvPSt13_Rb_tree_nodeIiEDpOT_, symObjAddr: 0x3B20, symBinAddr: 0x100006F50, symSize: 0xB0 }
  - { offsetInCU: 0x168AC, offset: 0x168AC, size: 0x8, addend: 0x0, symName: __ZNSt8_Rb_treeIiiSt9_IdentityIiESt4lessIiESaIiEE17_M_construct_nodeIJiEEEvPSt13_Rb_tree_nodeIiEDpOT_, symObjAddr: 0x3BD0, symBinAddr: 0x100007000, symSize: 0xB0 }
  - { offsetInCU: 0x16986, offset: 0x16986, size: 0x8, addend: 0x0, symName: __ZNSt8_Rb_treeIiiSt9_IdentityIiESt4lessIiESaIiEE11_M_get_nodeEv, symObjAddr: 0x3AE4, symBinAddr: 0x100006F14, symSize: 0x3C }
  - { offsetInCU: 0x1698E, offset: 0x1698E, size: 0x8, addend: 0x0, symName: __ZNSt8_Rb_treeIiiSt9_IdentityIiESt4lessIiESaIiEE17_M_construct_nodeIJRKiEEEvPSt13_Rb_tree_nodeIiEDpOT_, symObjAddr: 0x3B20, symBinAddr: 0x100006F50, symSize: 0xB0 }
  - { offsetInCU: 0x169E7, offset: 0x169E7, size: 0x8, addend: 0x0, symName: __ZNSt10_HashtableINSt7__cxx1112basic_stringIcSt11char_traitsIcESaIcEEESt4pairIKS5_St3setIiSt4lessIiESaIiEEESaISD_ENSt8__detail10_Select1stESt8equal_toIS5_ESt4hashIS5_ENSF_18_Mod_range_hashingENSF_20_Default_ranged_hashENSF_20_Prime_rehash_policyENSF_17_Hashtable_traitsILb1ELb0ELb1EEEE19_M_allocate_bucketsEm, symObjAddr: 0x3A8C, symBinAddr: 0x100006EBC, symSize: 0x58 }
  - { offsetInCU: 0x169EF, offset: 0x169EF, size: 0x8, addend: 0x0, symName: __ZNSt8_Rb_treeIiiSt9_IdentityIiESt4lessIiESaIiEE11_M_get_nodeEv, symObjAddr: 0x3AE4, symBinAddr: 0x100006F14, symSize: 0x3C }
  - { offsetInCU: 0x16A2A, offset: 0x16A2A, size: 0x8, addend: 0x0, symName: __ZNSt15__new_allocatorINSt8__detail10_Hash_nodeISt4pairIKNSt7__cxx1112basic_stringIcSt11char_traitsIcESaIcEEESt3setIiSt4lessIiESaIiEEELb1EEEE10deallocateEPSG_m, symObjAddr: 0x3A50, symBinAddr: 0x100006E80, symSize: 0x3C }
  - { offsetInCU: 0x16A32, offset: 0x16A32, size: 0x8, addend: 0x0, symName: __ZNSt10_HashtableINSt7__cxx1112basic_stringIcSt11char_traitsIcESaIcEEESt4pairIKS5_St3setIiSt4lessIiESaIiEEESaISD_ENSt8__detail10_Select1stESt8equal_toIS5_ESt4hashIS5_ENSF_18_Mod_range_hashingENSF_20_Default_ranged_hashENSF_20_Prime_rehash_policyENSF_17_Hashtable_traitsILb1ELb0ELb1EEEE19_M_allocate_bucketsEm, symObjAddr: 0x3A8C, symBinAddr: 0x100006EBC, symSize: 0x58 }
  - { offsetInCU: 0x16B79, offset: 0x16B79, size: 0x8, addend: 0x0, symName: __ZNSt5tupleIJRKNSt7__cxx1112basic_stringIcSt11char_traitsIcESaIcEEEEEC1EOS8_, symObjAddr: 0x3A28, symBinAddr: 0x100006E58, symSize: 0x28 }
  - { offsetInCU: 0x16B81, offset: 0x16B81, size: 0x8, addend: 0x0, symName: __ZNSt15__new_allocatorINSt8__detail10_Hash_nodeISt4pairIKNSt7__cxx1112basic_stringIcSt11char_traitsIcESaIcEEESt3setIiSt4lessIiESaIiEEELb1EEEE10deallocateEPSG_m, symObjAddr: 0x3A50, symBinAddr: 0x100006E80, symSize: 0x3C }
  - { offsetInCU: 0x16B66, offset: 0x16B66, size: 0x8, addend: 0x0, symName: __ZNSt15__new_allocatorINSt8__detail10_Hash_nodeISt4pairIKNSt7__cxx1112basic_stringIcSt11char_traitsIcESaIcEEESt3setIiSt4lessIiESaIiEEELb1EEEE8allocateEmPKv, symObjAddr: 0x3998, symBinAddr: 0x100006DC8, symSize: 0x90 }
  - { offsetInCU: 0x16B6E, offset: 0x16B6E, size: 0x8, addend: 0x0, symName: __ZNSt5tupleIJRKNSt7__cxx1112basic_stringIcSt11char_traitsIcESaIcEEEEEC1EOS8_, symObjAddr: 0x3A28, symBinAddr: 0x100006E58, symSize: 0x28 }
  - { offsetInCU: 0x16BF0, offset: 0x16BF0, size: 0x8, addend: 0x0, symName: __ZN9__gnu_cxx16__aligned_bufferISt4pairIKNSt7__cxx1112basic_stringIcSt11char_traitsIcESaIcEEESt3setIiSt4lessIiESaIiEEEE7_M_addrEv, symObjAddr: 0x3984, symBinAddr: 0x100006DB4, symSize: 0x14 }
  - { offsetInCU: 0x16BF8, offset: 0x16BF8, size: 0x8, addend: 0x0, symName: __ZNSt15__new_allocatorINSt8__detail10_Hash_nodeISt4pairIKNSt7__cxx1112basic_stringIcSt11char_traitsIcESaIcEEESt3setIiSt4lessIiESaIiEEELb1EEEE8allocateEmPKv, symObjAddr: 0x3998, symBinAddr: 0x100006DC8, symSize: 0x90 }
  - { offsetInCU: 0x16C23, offset: 0x16C23, size: 0x8, addend: 0x0, symName: __ZNKSt8__detail15_Hash_code_baseINSt7__cxx1112basic_stringIcSt11char_traitsIcESaIcEEESt4pairIKS6_St3setIiSt4lessIiESaIiEEENS_10_Select1stESt4hashIS6_ENS_18_Mod_range_hashingENS_20_Default_ranged_hashELb1EE15_M_bucket_indexERKNS_16_Hash_node_valueISE_Lb1EEEm, symObjAddr: 0x3954, symBinAddr: 0x100006D84, symSize: 0x30 }
  - { offsetInCU: 0x16C2B, offset: 0x16C2B, size: 0x8, addend: 0x0, symName: __ZN9__gnu_cxx16__aligned_bufferISt4pairIKNSt7__cxx1112basic_stringIcSt11char_traitsIcESaIcEEESt3setIiSt4lessIiESaIiEEEE7_M_addrEv, symObjAddr: 0x3984, symBinAddr: 0x100006DB4, symSize: 0x14 }
  - { offsetInCU: 0x16C7A, offset: 0x16C7A, size: 0x8, addend: 0x0, symName: __ZNKSt8__detail15_Hashtable_baseINSt7__cxx1112basic_stringIcSt11char_traitsIcESaIcEEESt4pairIKS6_St3setIiSt4lessIiESaIiEEENS_10_Select1stESt8equal_toIS6_ESt4hashIS6_ENS_18_Mod_range_hashingENS_20_Default_ranged_hashENS_17_Hashtable_traitsILb1ELb0ELb1EEEE13_M_key_equalsERS8_RKNS_16_Hash_node_valueISE_Lb1EEE, symObjAddr: 0x38FC, symBinAddr: 0x100006D2C, symSize: 0x58 }
  - { offsetInCU: 0x16C82, offset: 0x16C82, size: 0x8, addend: 0x0, symName: __ZNKSt8__detail15_Hash_code_baseINSt7__cxx1112basic_stringIcSt11char_traitsIcESaIcEEESt4pairIKS6_St3setIiSt4lessIiESaIiEEENS_10_Select1stESt4hashIS6_ENS_18_Mod_range_hashingENS_20_Default_ranged_hashELb1EE15_M_bucket_indexERKNS_16_Hash_node_valueISE_Lb1EEEm, symObjAddr: 0x3954, symBinAddr: 0x100006D84, symSize: 0x30 }
  - { offsetInCU: 0x16CD1, offset: 0x16CD1, size: 0x8, addend: 0x0, symName: __ZNSt8__detail15_Hashtable_baseINSt7__cxx1112basic_stringIcSt11char_traitsIcESaIcEEESt4pairIKS6_St3setIiSt4lessIiESaIiEEENS_10_Select1stESt8equal_toIS6_ESt4hashIS6_ENS_18_Mod_range_hashingENS_20_Default_ranged_hashENS_17_Hashtable_traitsILb1ELb0ELb1EEEE9_S_equalsEmRKNS_21_Hash_node_code_cacheILb1EEE, symObjAddr: 0x38D0, symBinAddr: 0x100006D00, symSize: 0x2C }
  - { offsetInCU: 0x16CD9, offset: 0x16CD9, size: 0x8, addend: 0x0, symName: __ZNKSt8__detail15_Hashtable_baseINSt7__cxx1112basic_stringIcSt11char_traitsIcESaIcEEESt4pairIKS6_St3setIiSt4lessIiESaIiEEENS_10_Select1stESt8equal_toIS6_ESt4hashIS6_ENS_18_Mod_range_hashingENS_20_Default_ranged_hashENS_17_Hashtable_traitsILb1ELb0ELb1EEEE13_M_key_equalsERS8_RKNS_16_Hash_node_valueISE_Lb1EEE, symObjAddr: 0x38FC, symBinAddr: 0x100006D2C, symSize: 0x58 }
  - { offsetInCU: 0x16D17, offset: 0x16D17, size: 0x8, addend: 0x0, symName: __ZNSt15__new_allocatorIPNSt8__detail15_Hash_node_baseEE10deallocateEPS2_m, symObjAddr: 0x38A0, symBinAddr: 0x100006CD0, symSize: 0x30 }
  - { offsetInCU: 0x16D1F, offset: 0x16D1F, size: 0x8, addend: 0x0, symName: __ZNSt8__detail15_Hashtable_baseINSt7__cxx1112basic_stringIcSt11char_traitsIcESaIcEEESt4pairIKS6_St3setIiSt4lessIiESaIiEEENS_10_Select1stESt8equal_toIS6_ESt4hashIS6_ENS_18_Mod_range_hashingENS_20_Default_ranged_hashENS_17_Hashtable_traitsILb1ELb0ELb1EEEE9_S_equalsEmRKNS_21_Hash_node_code_cacheILb1EEE, symObjAddr: 0x38D0, symBinAddr: 0x100006D00, symSize: 0x2C }
  - { offsetInCU: 0x16DCF, offset: 0x16DCF, size: 0x8, addend: 0x0, symName: __ZNSt15__new_allocatorIPNSt8__detail15_Hash_node_baseEED2Ev, symObjAddr: 0x388C, symBinAddr: 0x100006CBC, symSize: 0x14 }
  - { offsetInCU: 0x16DD7, offset: 0x16DD7, size: 0x8, addend: 0x0, symName: __ZNSt15__new_allocatorIPNSt8__detail15_Hash_node_baseEE10deallocateEPS2_m, symObjAddr: 0x38A0, symBinAddr: 0x100006CD0, symSize: 0x30 }
  - { offsetInCU: 0x16E40, offset: 0x16E40, size: 0x8, addend: 0x0, symName: __ZSt9addressofIPNSt8__detail15_Hash_node_baseEEPT_RS3_, symObjAddr: 0x3870, symBinAddr: 0x100006CA0, symSize: 0x1C }
  - { offsetInCU: 0x16E48, offset: 0x16E48, size: 0x8, addend: 0x0, symName: __ZNSt15__new_allocatorIPNSt8__detail15_Hash_node_baseEED2Ev, symObjAddr: 0x388C, symBinAddr: 0x100006CBC, symSize: 0x14 }
  - { offsetInCU: 0x16E24, offset: 0x16E24, size: 0x8, addend: 0x0, symName: __ZNSt19__ptr_traits_ptr_toIPNSt8__detail10_Hash_nodeISt4pairIKNSt7__cxx1112basic_stringIcSt11char_traitsIcESaIcEEESt3setIiSt4lessIiESaIiEEELb1EEESG_Lb0EE10pointer_toERSG_, symObjAddr: 0x3854, symBinAddr: 0x100006C84, symSize: 0x1C }
  - { offsetInCU: 0x16E2C, offset: 0x16E2C, size: 0x8, addend: 0x0, symName: __ZSt9addressofIPNSt8__detail15_Hash_node_baseEEPT_RS3_, symObjAddr: 0x3870, symBinAddr: 0x100006CA0, symSize: 0x1C }
  - { offsetInCU: 0x16F13, offset: 0x16F13, size: 0x8, addend: 0x0, symName: __ZNSt4pairIKNSt7__cxx1112basic_stringIcSt11char_traitsIcESaIcEEESt3setIiSt4lessIiESaIiEEED1Ev, symObjAddr: 0x3828, symBinAddr: 0x100006C58, symSize: 0x2C }
  - { offsetInCU: 0x16F1B, offset: 0x16F1B, size: 0x8, addend: 0x0, symName: __ZNSt19__ptr_traits_ptr_toIPNSt8__detail10_Hash_nodeISt4pairIKNSt7__cxx1112basic_stringIcSt11char_traitsIcESaIcEEESt3setIiSt4lessIiESaIiEEELb1EEESG_Lb0EE10pointer_toERSG_, symObjAddr: 0x3854, symBinAddr: 0x100006C84, symSize: 0x1C }
  - { offsetInCU: 0x16F2A, offset: 0x16F2A, size: 0x8, addend: 0x0, symName: __ZNSt3setIiSt4lessIiESaIiEED1Ev, symObjAddr: 0x3808, symBinAddr: 0x100006C38, symSize: 0x20 }
  - { offsetInCU: 0x16F32, offset: 0x16F32, size: 0x8, addend: 0x0, symName: __ZNSt4pairIKNSt7__cxx1112basic_stringIcSt11char_traitsIcESaIcEEESt3setIiSt4lessIiESaIiEEED1Ev, symObjAddr: 0x3828, symBinAddr: 0x100006C58, symSize: 0x2C }
  - { offsetInCU: 0x16F38, offset: 0x16F38, size: 0x8, addend: 0x0, symName: __ZNSt8__detail21_Hashtable_ebo_helperILi0ESaINS_10_Hash_nodeISt4pairIKNSt7__cxx1112basic_stringIcSt11char_traitsIcESaIcEEESt3setIiSt4lessIiESaIiEEELb1EEEELb1EE6_M_getEv, symObjAddr: 0x37F4, symBinAddr: 0x100006C24, symSize: 0x14 }
  - { offsetInCU: 0x16F40, offset: 0x16F40, size: 0x8, addend: 0x0, symName: __ZNSt3setIiSt4lessIiESaIiEED1Ev, symObjAddr: 0x3808, symBinAddr: 0x100006C38, symSize: 0x20 }
  - { offsetInCU: 0x16FDF, offset: 0x16FDF, size: 0x8, addend: 0x0, symName: __ZSt8_DestroyIPNSt7__cxx1112basic_stringIcSt11char_traitsIcESaIcEEEEvT_S7_, symObjAddr: 0x37CC, symBinAddr: 0x100006BFC, symSize: 0x28 }
  - { offsetInCU: 0x16FE7, offset: 0x16FE7, size: 0x8, addend: 0x0, symName: __ZNSt8__detail21_Hashtable_ebo_helperILi0ESaINS_10_Hash_nodeISt4pairIKNSt7__cxx1112basic_stringIcSt11char_traitsIcESaIcEEESt3setIiSt4lessIiESaIiEEELb1EEEELb1EE6_M_getEv, symObjAddr: 0x37F4, symBinAddr: 0x100006C24, symSize: 0x14 }
  - { offsetInCU: 0x170E1, offset: 0x170E1, size: 0x8, addend: 0x0, symName: __ZSt12__relocate_aIPNSt7__cxx1112basic_stringIcSt11char_traitsIcESaIcEEES6_SaIS5_EET0_T_S9_S8_RT1_, symObjAddr: 0x3770, symBinAddr: 0x100006BA0, symSize: 0x5C }
  - { offsetInCU: 0x170E9, offset: 0x170E9, size: 0x8, addend: 0x0, symName: __ZSt8_DestroyIPNSt7__cxx1112basic_stringIcSt11char_traitsIcESaIcEEEEvT_S7_, symObjAddr: 0x37CC, symBinAddr: 0x100006BFC, symSize: 0x28 }
  - { offsetInCU: 0x170C1, offset: 0x170C1, size: 0x8, addend: 0x0, symName: __ZNKSt6vectorINSt7__cxx1112basic_stringIcSt11char_traitsIcESaIcEEESaIS5_EE4sizeEv, symObjAddr: 0x3748, symBinAddr: 0x100006B78, symSize: 0x28 }
  - { offsetInCU: 0x170C9, offset: 0x170C9, size: 0x8, addend: 0x0, symName: __ZSt12__relocate_aIPNSt7__cxx1112basic_stringIcSt11char_traitsIcESaIcEEES6_SaIS5_EET0_T_S9_S8_RT1_, symObjAddr: 0x3770, symBinAddr: 0x100006BA0, symSize: 0x5C }
  - { offsetInCU: 0x170F0, offset: 0x170F0, size: 0x8, addend: 0x0, symName: __ZNKSt6vectorINSt7__cxx1112basic_stringIcSt11char_traitsIcESaIcEEESaIS5_EE8max_sizeEv, symObjAddr: 0x3728, symBinAddr: 0x100006B58, symSize: 0x20 }
  - { offsetInCU: 0x170F8, offset: 0x170F8, size: 0x8, addend: 0x0, symName: __ZNKSt6vectorINSt7__cxx1112basic_stringIcSt11char_traitsIcESaIcEEESaIS5_EE4sizeEv, symObjAddr: 0x3748, symBinAddr: 0x100006B78, symSize: 0x28 }
  - { offsetInCU: 0x1711F, offset: 0x1711F, size: 0x8, addend: 0x0, symName: __ZNSt8_Rb_treeIiiSt9_IdentityIiESt4lessIiESaIiEE14_M_create_nodeIJiEEEPSt13_Rb_tree_nodeIiEDpOT_, symObjAddr: 0x36E8, symBinAddr: 0x100006B18, symSize: 0x40 }
  - { offsetInCU: 0x17127, offset: 0x17127, size: 0x8, addend: 0x0, symName: __ZNKSt6vectorINSt7__cxx1112basic_stringIcSt11char_traitsIcESaIcEEESaIS5_EE8max_sizeEv, symObjAddr: 0x3728, symBinAddr: 0x100006B58, symSize: 0x20 }
  - { offsetInCU: 0x17184, offset: 0x17184, size: 0x8, addend: 0x0, symName: __ZNSt8_Rb_treeIiiSt9_IdentityIiESt4lessIiESaIiEE14_M_create_nodeIJRKiEEEPSt13_Rb_tree_nodeIiEDpOT_, symObjAddr: 0x36A8, symBinAddr: 0x100006AD8, symSize: 0x40 }
  - { offsetInCU: 0x1718C, offset: 0x1718C, size: 0x8, addend: 0x0, symName: __ZNSt8_Rb_treeIiiSt9_IdentityIiESt4lessIiESaIiEE14_M_create_nodeIJiEEEPSt13_Rb_tree_nodeIiEDpOT_, symObjAddr: 0x36E8, symBinAddr: 0x100006B18, symSize: 0x40 }
  - { offsetInCU: 0x1725B, offset: 0x1725B, size: 0x8, addend: 0x0, symName: __ZSt7forwardIRPSt18_Rb_tree_node_baseEOT_RNSt16remove_referenceIS3_E4typeE, symObjAddr: 0x3694, symBinAddr: 0x100006AC4, symSize: 0x14 }
  - { offsetInCU: 0x17263, offset: 0x17263, size: 0x8, addend: 0x0, symName: __ZNSt8_Rb_treeIiiSt9_IdentityIiESt4lessIiESaIiEE14_M_create_nodeIJRKiEEEPSt13_Rb_tree_nodeIiEDpOT_, symObjAddr: 0x36A8, symBinAddr: 0x100006AD8, symSize: 0x40 }
  - { offsetInCU: 0x172AD, offset: 0x172AD, size: 0x8, addend: 0x0, symName: __ZSt7forwardIRPSt13_Rb_tree_nodeIiEEOT_RNSt16remove_referenceIS4_E4typeE, symObjAddr: 0x3680, symBinAddr: 0x100006AB0, symSize: 0x14 }
  - { offsetInCU: 0x172B5, offset: 0x172B5, size: 0x8, addend: 0x0, symName: __ZSt7forwardIRPSt18_Rb_tree_node_baseEOT_RNSt16remove_referenceIS3_E4typeE, symObjAddr: 0x3694, symBinAddr: 0x100006AC4, symSize: 0x14 }
  - { offsetInCU: 0x17362, offset: 0x17362, size: 0x8, addend: 0x0, symName: __ZNSt8__detail19_Node_iterator_baseISt4pairIKNSt7__cxx1112basic_stringIcSt11char_traitsIcESaIcEEESt3setIiSt4lessIiESaIiEEELb1EEC2EPNS_10_Hash_nodeISE_Lb1EEE, symObjAddr: 0x365C, symBinAddr: 0x100006A8C, symSize: 0x24 }
  - { offsetInCU: 0x1736A, offset: 0x1736A, size: 0x8, addend: 0x0, symName: __ZSt7forwardIRPSt13_Rb_tree_nodeIiEEOT_RNSt16remove_referenceIS4_E4typeE, symObjAddr: 0x3680, symBinAddr: 0x100006AB0, symSize: 0x14 }
  - { offsetInCU: 0x172FF, offset: 0x172FF, size: 0x8, addend: 0x0, symName: __ZNSt10_HashtableINSt7__cxx1112basic_stringIcSt11char_traitsIcESaIcEEESt4pairIKS5_St3setIiSt4lessIiESaIiEEESaISD_ENSt8__detail10_Select1stESt8equal_toIS5_ESt4hashIS5_ENSF_18_Mod_range_hashingENSF_20_Default_ranged_hashENSF_20_Prime_rehash_policyENSF_17_Hashtable_traitsILb1ELb0ELb1EEEE13_M_rehash_auxEmSt17integral_constantIbLb1EE, symObjAddr: 0x34F0, symBinAddr: 0x100006920, symSize: 0x16C }
  - { offsetInCU: 0x17307, offset: 0x17307, size: 0x8, addend: 0x0, symName: __ZNSt8__detail19_Node_iterator_baseISt4pairIKNSt7__cxx1112basic_stringIcSt11char_traitsIcESaIcEEESt3setIiSt4lessIiESaIiEEELb1EEC2EPNS_10_Hash_nodeISE_Lb1EEE, symObjAddr: 0x365C, symBinAddr: 0x100006A8C, symSize: 0x24 }
  - { offsetInCU: 0x17586, offset: 0x17586, size: 0x8, addend: 0x0, symName: __ZSt12__to_addressINSt8__detail10_Hash_nodeISt4pairIKNSt7__cxx1112basic_stringIcSt11char_traitsIcESaIcEEESt3setIiSt4lessIiESaIiEEELb1EEEEPT_SI_, symObjAddr: 0x34DC, symBinAddr: 0x10000690C, symSize: 0x14 }
  - { offsetInCU: 0x1758E, offset: 0x1758E, size: 0x8, addend: 0x0, symName: __ZNSt10_HashtableINSt7__cxx1112basic_stringIcSt11char_traitsIcESaIcEEESt4pairIKS5_St3setIiSt4lessIiESaIiEEESaISD_ENSt8__detail10_Select1stESt8equal_toIS5_ESt4hashIS5_ENSF_18_Mod_range_hashingENSF_20_Default_ranged_hashENSF_20_Prime_rehash_policyENSF_17_Hashtable_traitsILb1ELb0ELb1EEEE13_M_rehash_auxEmSt17integral_constantIbLb1EE, symObjAddr: 0x34F0, symBinAddr: 0x100006920, symSize: 0x16C }
  - { offsetInCU: 0x17578, offset: 0x17578, size: 0x8, addend: 0x0, symName: __ZNSt10_Head_baseILm0ERKNSt7__cxx1112basic_stringIcSt11char_traitsIcESaIcEEELb0EEC2ES7_, symObjAddr: 0x34B8, symBinAddr: 0x1000068E8, symSize: 0x24 }
  - { offsetInCU: 0x17580, offset: 0x17580, size: 0x8, addend: 0x0, symName: __ZSt12__to_addressINSt8__detail10_Hash_nodeISt4pairIKNSt7__cxx1112basic_stringIcSt11char_traitsIcESaIcEEESt3setIiSt4lessIiESaIiEEELb1EEEEPT_SI_, symObjAddr: 0x34DC, symBinAddr: 0x10000690C, symSize: 0x14 }
  - { offsetInCU: 0x1755A, offset: 0x1755A, size: 0x8, addend: 0x0, symName: __ZN9__gnu_cxx16__aligned_bufferISt4pairIKNSt7__cxx1112basic_stringIcSt11char_traitsIcESaIcEEESt3setIiSt4lessIiESaIiEEEE6_M_ptrEv, symObjAddr: 0x349C, symBinAddr: 0x1000068CC, symSize: 0x1C }
  - { offsetInCU: 0x17562, offset: 0x17562, size: 0x8, addend: 0x0, symName: __ZNSt10_Head_baseILm0ERKNSt7__cxx1112basic_stringIcSt11char_traitsIcESaIcEEELb0EEC2ES7_, symObjAddr: 0x34B8, symBinAddr: 0x1000068E8, symSize: 0x24 }
  - { offsetInCU: 0x17589, offset: 0x17589, size: 0x8, addend: 0x0, symName: __ZNKSt10_HashtableINSt7__cxx1112basic_stringIcSt11char_traitsIcESaIcEEESt4pairIKS5_St3setIiSt4lessIiESaIiEEESaISD_ENSt8__detail10_Select1stESt8equal_toIS5_ESt4hashIS5_ENSF_18_Mod_range_hashingENSF_20_Default_ranged_hashENSF_20_Prime_rehash_policyENSF_17_Hashtable_traitsILb1ELb0ELb1EEEE15_M_bucket_indexERKNSF_16_Hash_node_valueISD_Lb1EEE, symObjAddr: 0x346C, symBinAddr: 0x10000689C, symSize: 0x30 }
  - { offsetInCU: 0x17591, offset: 0x17591, size: 0x8, addend: 0x0, symName: __ZN9__gnu_cxx16__aligned_bufferISt4pairIKNSt7__cxx1112basic_stringIcSt11char_traitsIcESaIcEEESt3setIiSt4lessIiESaIiEEEE6_M_ptrEv, symObjAddr: 0x349C, symBinAddr: 0x1000068CC, symSize: 0x1C }
  - { offsetInCU: 0x175CC, offset: 0x175CC, size: 0x8, addend: 0x0, symName: __ZNKSt8__detail15_Hashtable_baseINSt7__cxx1112basic_stringIcSt11char_traitsIcESaIcEEESt4pairIKS6_St3setIiSt4lessIiESaIiEEENS_10_Select1stESt8equal_toIS6_ESt4hashIS6_ENS_18_Mod_range_hashingENS_20_Default_ranged_hashENS_17_Hashtable_traitsILb1ELb0ELb1EEEE9_M_equalsERS8_mRKNS_16_Hash_node_valueISE_Lb1EEE, symObjAddr: 0x33FC, symBinAddr: 0x10000682C, symSize: 0x70 }
  - { offsetInCU: 0x175D4, offset: 0x175D4, size: 0x8, addend: 0x0, symName: __ZNKSt10_HashtableINSt7__cxx1112basic_stringIcSt11char_traitsIcESaIcEEESt4pairIKS5_St3setIiSt4lessIiESaIiEEESaISD_ENSt8__detail10_Select1stESt8equal_toIS5_ESt4hashIS5_ENSF_18_Mod_range_hashingENSF_20_Default_ranged_hashENSF_20_Prime_rehash_policyENSF_17_Hashtable_traitsILb1ELb0ELb1EEEE15_M_bucket_indexERKNSF_16_Hash_node_valueISD_Lb1EEE, symObjAddr: 0x346C, symBinAddr: 0x10000689C, symSize: 0x30 }
  - { offsetInCU: 0x17637, offset: 0x17637, size: 0x8, addend: 0x0, symName: __ZNKSt8__detail21_Hashtable_ebo_helperILi1ESt4hashINSt7__cxx1112basic_stringIcSt11char_traitsIcESaIcEEEELb1EE7_M_cgetEv, symObjAddr: 0x33E8, symBinAddr: 0x100006818, symSize: 0x14 }
  - { offsetInCU: 0x1763F, offset: 0x1763F, size: 0x8, addend: 0x0, symName: __ZNKSt8__detail15_Hashtable_baseINSt7__cxx1112basic_stringIcSt11char_traitsIcESaIcEEESt4pairIKS6_St3setIiSt4lessIiESaIiEEENS_10_Select1stESt8equal_toIS6_ESt4hashIS6_ENS_18_Mod_range_hashingENS_20_Default_ranged_hashENS_17_Hashtable_traitsILb1ELb0ELb1EEEE9_M_equalsERS8_mRKNS_16_Hash_node_valueISE_Lb1EEE, symObjAddr: 0x33FC, symBinAddr: 0x10000682C, symSize: 0x70 }
  - { offsetInCU: 0x176FA, offset: 0x176FA, size: 0x8, addend: 0x0, symName: __ZNSt19__ptr_traits_ptr_toIPPNSt8__detail15_Hash_node_baseES2_Lb0EE10pointer_toERS2_, symObjAddr: 0x33CC, symBinAddr: 0x1000067FC, symSize: 0x1C }
  - { offsetInCU: 0x17702, offset: 0x17702, size: 0x8, addend: 0x0, symName: __ZNKSt8__detail21_Hashtable_ebo_helperILi1ESt4hashINSt7__cxx1112basic_stringIcSt11char_traitsIcESaIcEEEELb1EE7_M_cgetEv, symObjAddr: 0x33E8, symBinAddr: 0x100006818, symSize: 0x14 }
  - { offsetInCU: 0x1772B, offset: 0x1772B, size: 0x8, addend: 0x0, symName: __ZNSt8__detail16_Hashtable_allocISaINS_10_Hash_nodeISt4pairIKNSt7__cxx1112basic_stringIcSt11char_traitsIcESaIcEEESt3setIiSt4lessIiESaIiEEELb1EEEEE22_M_deallocate_node_ptrEPSG_, symObjAddr: 0x3374, symBinAddr: 0x1000067A4, symSize: 0x58 }
  - { offsetInCU: 0x17733, offset: 0x17733, size: 0x8, addend: 0x0, symName: __ZNSt19__ptr_traits_ptr_toIPPNSt8__detail15_Hash_node_baseES2_Lb0EE10pointer_toERS2_, symObjAddr: 0x33CC, symBinAddr: 0x1000067FC, symSize: 0x1C }
  - { offsetInCU: 0x177FA, offset: 0x177FA, size: 0x8, addend: 0x0, symName: __ZNSt8__detail16_Hashtable_allocISaINS_10_Hash_nodeISt4pairIKNSt7__cxx1112basic_stringIcSt11char_traitsIcESaIcEEESt3setIiSt4lessIiESaIiEEELb1EEEEE17_M_node_allocatorEv, symObjAddr: 0x3358, symBinAddr: 0x100006788, symSize: 0x1C }
  - { offsetInCU: 0x17802, offset: 0x17802, size: 0x8, addend: 0x0, symName: __ZNSt8__detail16_Hashtable_allocISaINS_10_Hash_nodeISt4pairIKNSt7__cxx1112basic_stringIcSt11char_traitsIcESaIcEEESt3setIiSt4lessIiESaIiEEELb1EEEEE22_M_deallocate_node_ptrEPSG_, symObjAddr: 0x3374, symBinAddr: 0x1000067A4, symSize: 0x58 }
  - { offsetInCU: 0x17829, offset: 0x17829, size: 0x8, addend: 0x0, symName: __ZNK9__gnu_cxx17__normal_iteratorIPNSt7__cxx1112basic_stringIcSt11char_traitsIcESaIcEEESt6vectorIS6_SaIS6_EEEmiEl, symObjAddr: 0x3314, symBinAddr: 0x100006744, symSize: 0x44 }
  - { offsetInCU: 0x17831, offset: 0x17831, size: 0x8, addend: 0x0, symName: __ZNSt8__detail16_Hashtable_allocISaINS_10_Hash_nodeISt4pairIKNSt7__cxx1112basic_stringIcSt11char_traitsIcESaIcEEESt3setIiSt4lessIiESaIiEEELb1EEEEE17_M_node_allocatorEv, symObjAddr: 0x3358, symBinAddr: 0x100006788, symSize: 0x1C }
  - { offsetInCU: 0x178FC, offset: 0x178FC, size: 0x8, addend: 0x0, symName: __ZNSt12_Vector_baseINSt7__cxx1112basic_stringIcSt11char_traitsIcESaIcEEESaIS5_EE19_M_get_Tp_allocatorEv, symObjAddr: 0x3300, symBinAddr: 0x100006730, symSize: 0x14 }
  - { offsetInCU: 0x17904, offset: 0x17904, size: 0x8, addend: 0x0, symName: __ZNK9__gnu_cxx17__normal_iteratorIPNSt7__cxx1112basic_stringIcSt11char_traitsIcESaIcEEESt6vectorIS6_SaIS6_EEEmiEl, symObjAddr: 0x3314, symBinAddr: 0x100006744, symSize: 0x44 }
  - { offsetInCU: 0x1792B, offset: 0x1792B, size: 0x8, addend: 0x0, symName: __ZNSt6vectorINSt7__cxx1112basic_stringIcSt11char_traitsIcESaIcEEESaIS5_EE11_S_relocateEPS5_S8_S8_RS6_, symObjAddr: 0x32CC, symBinAddr: 0x1000066FC, symSize: 0x34 }
  - { offsetInCU: 0x17933, offset: 0x17933, size: 0x8, addend: 0x0, symName: __ZNSt12_Vector_baseINSt7__cxx1112basic_stringIcSt11char_traitsIcESaIcEEESaIS5_EE19_M_get_Tp_allocatorEv, symObjAddr: 0x3300, symBinAddr: 0x100006730, symSize: 0x14 }
  - { offsetInCU: 0x17999, offset: 0x17999, size: 0x8, addend: 0x0, symName: __ZNSt12_Vector_baseINSt7__cxx1112basic_stringIcSt11char_traitsIcESaIcEEESaIS5_EE11_M_allocateEm, symObjAddr: 0x327C, symBinAddr: 0x1000066AC, symSize: 0x50 }
  - { offsetInCU: 0x179A1, offset: 0x179A1, size: 0x8, addend: 0x0, symName: __ZNSt6vectorINSt7__cxx1112basic_stringIcSt11char_traitsIcESaIcEEESaIS5_EE11_S_relocateEPS5_S8_S8_RS6_, symObjAddr: 0x32CC, symBinAddr: 0x1000066FC, symSize: 0x34 }
  - { offsetInCU: 0x17B05, offset: 0x17B05, size: 0x8, addend: 0x0, symName: __ZN9__gnu_cxxmiIPNSt7__cxx1112basic_stringIcSt11char_traitsIcESaIcEEESt6vectorIS6_SaIS6_EEEENS_17__normal_iteratorIT_T0_E15difference_typeERKSE_SH_, symObjAddr: 0x323C, symBinAddr: 0x10000666C, symSize: 0x40 }
  - { offsetInCU: 0x17B0D, offset: 0x17B0D, size: 0x8, addend: 0x0, symName: __ZNSt12_Vector_baseINSt7__cxx1112basic_stringIcSt11char_traitsIcESaIcEEESaIS5_EE11_M_allocateEm, symObjAddr: 0x327C, symBinAddr: 0x1000066AC, symSize: 0x50 }
  - { offsetInCU: 0x17A85, offset: 0x17A85, size: 0x8, addend: 0x0, symName: __ZNKSt6vectorINSt7__cxx1112basic_stringIcSt11char_traitsIcESaIcEEESaIS5_EE12_M_check_lenEmPKc, symObjAddr: 0x316C, symBinAddr: 0x10000659C, symSize: 0xD0 }
  - { offsetInCU: 0x17A8D, offset: 0x17A8D, size: 0x8, addend: 0x0, symName: __ZN9__gnu_cxxmiIPNSt7__cxx1112basic_stringIcSt11char_traitsIcESaIcEEESt6vectorIS6_SaIS6_EEEENS_17__normal_iteratorIT_T0_E15difference_typeERKSE_SH_, symObjAddr: 0x323C, symBinAddr: 0x10000666C, symSize: 0x40 }
  - { offsetInCU: 0x17B47, offset: 0x17B47, size: 0x8, addend: 0x0, symName: __ZNK9__gnu_cxx16__aligned_membufIiE7_M_addrEv, symObjAddr: 0x3158, symBinAddr: 0x100006588, symSize: 0x14 }
  - { offsetInCU: 0x17B4F, offset: 0x17B4F, size: 0x8, addend: 0x0, symName: __ZNKSt6vectorINSt7__cxx1112basic_stringIcSt11char_traitsIcESaIcEEESaIS5_EE12_M_check_lenEmPKc, symObjAddr: 0x316C, symBinAddr: 0x10000659C, symSize: 0xD0 }
  - { offsetInCU: 0x17B7A, offset: 0x17B7A, size: 0x8, addend: 0x0, symName: __ZNKSt8_Rb_treeIiiSt9_IdentityIiESt4lessIiESaIiEE9_M_mbeginEv, symObjAddr: 0x3140, symBinAddr: 0x100006570, symSize: 0x18 }
  - { offsetInCU: 0x17B82, offset: 0x17B82, size: 0x8, addend: 0x0, symName: __ZNK9__gnu_cxx16__aligned_membufIiE7_M_addrEv, symObjAddr: 0x3158, symBinAddr: 0x100006588, symSize: 0x14 }
  - { offsetInCU: 0x17BBC, offset: 0x17BBC, size: 0x8, addend: 0x0, symName: __ZNKSt8_Rb_treeIiiSt9_IdentityIiESt4lessIiESaIiEE11_Alloc_nodeclIiEEPSt13_Rb_tree_nodeIiEOT_, symObjAddr: 0x3104, symBinAddr: 0x100006534, symSize: 0x3C }
  - { offsetInCU: 0x17BC4, offset: 0x17BC4, size: 0x8, addend: 0x0, symName: __ZNKSt8_Rb_treeIiiSt9_IdentityIiESt4lessIiESaIiEE9_M_mbeginEv, symObjAddr: 0x3140, symBinAddr: 0x100006570, symSize: 0x18 }
  - { offsetInCU: 0x17C81, offset: 0x17C81, size: 0x8, addend: 0x0, symName: __ZSt7forwardISt17_Rb_tree_iteratorIiEEOT_RNSt16remove_referenceIS2_E4typeE, symObjAddr: 0x30F0, symBinAddr: 0x100006520, symSize: 0x14 }
  - { offsetInCU: 0x17C89, offset: 0x17C89, size: 0x8, addend: 0x0, symName: __ZNKSt8_Rb_treeIiiSt9_IdentityIiESt4lessIiESaIiEE11_Alloc_nodeclIiEEPSt13_Rb_tree_nodeIiEOT_, symObjAddr: 0x3104, symBinAddr: 0x100006534, symSize: 0x3C }
  - { offsetInCU: 0x17C60, offset: 0x17C60, size: 0x8, addend: 0x0, symName: __ZNKSt8_Rb_treeIiiSt9_IdentityIiESt4lessIiESaIiEE11_Alloc_nodeclIRKiEEPSt13_Rb_tree_nodeIiEOT_, symObjAddr: 0x30B4, symBinAddr: 0x1000064E4, symSize: 0x3C }
  - { offsetInCU: 0x17C68, offset: 0x17C68, size: 0x8, addend: 0x0, symName: __ZSt7forwardISt17_Rb_tree_iteratorIiEEOT_RNSt16remove_referenceIS2_E4typeE, symObjAddr: 0x30F0, symBinAddr: 0x100006520, symSize: 0x14 }
  - { offsetInCU: 0x17D45, offset: 0x17D45, size: 0x8, addend: 0x0, symName: __ZNSt4pairIPSt18_Rb_tree_node_baseS1_EC1IS1_S1_Lb1EEERKS1_S5_, symObjAddr: 0x3078, symBinAddr: 0x1000064A8, symSize: 0x3C }
  - { offsetInCU: 0x17D4D, offset: 0x17D4D, size: 0x8, addend: 0x0, symName: __ZNKSt8_Rb_treeIiiSt9_IdentityIiESt4lessIiESaIiEE11_Alloc_nodeclIRKiEEPSt13_Rb_tree_nodeIiEOT_, symObjAddr: 0x30B4, symBinAddr: 0x1000064E4, symSize: 0x3C }
  - { offsetInCU: 0x17D69, offset: 0x17D69, size: 0x8, addend: 0x0, symName: __ZNSt8_Rb_treeIiiSt9_IdentityIiESt4lessIiESaIiEE6_S_keyEPKSt18_Rb_tree_node_base, symObjAddr: 0x305C, symBinAddr: 0x10000648C, symSize: 0x1C }
  - { offsetInCU: 0x17D71, offset: 0x17D71, size: 0x8, addend: 0x0, symName: __ZNSt4pairIPSt18_Rb_tree_node_baseS1_EC1IS1_S1_Lb1EEERKS1_S5_, symObjAddr: 0x3078, symBinAddr: 0x1000064A8, symSize: 0x3C }
  - { offsetInCU: 0x17D9B, offset: 0x17D9B, size: 0x8, addend: 0x0, symName: __ZNSt17_Rb_tree_iteratorIiEmmEv, symObjAddr: 0x302C, symBinAddr: 0x10000645C, symSize: 0x30 }
  - { offsetInCU: 0x17DA3, offset: 0x17DA3, size: 0x8, addend: 0x0, symName: __ZNSt8_Rb_treeIiiSt9_IdentityIiESt4lessIiESaIiEE6_S_keyEPKSt18_Rb_tree_node_base, symObjAddr: 0x305C, symBinAddr: 0x10000648C, symSize: 0x1C }
  - { offsetInCU: 0x17E70, offset: 0x17E70, size: 0x8, addend: 0x0, symName: __ZNSt4pairIPSt18_Rb_tree_node_baseS1_EC1IRPSt13_Rb_tree_nodeIiERS1_Lb1EEEOT_OT0_, symObjAddr: 0x2FE4, symBinAddr: 0x100006414, symSize: 0x48 }
  - { offsetInCU: 0x17E78, offset: 0x17E78, size: 0x8, addend: 0x0, symName: __ZNSt17_Rb_tree_iteratorIiEmmEv, symObjAddr: 0x302C, symBinAddr: 0x10000645C, symSize: 0x30 }
  - { offsetInCU: 0x17EB3, offset: 0x17EB3, size: 0x8, addend: 0x0, symName: __ZSteqRKSt17_Rb_tree_iteratorIiES2_, symObjAddr: 0x2FB4, symBinAddr: 0x1000063E4, symSize: 0x30 }
  - { offsetInCU: 0x17EBB, offset: 0x17EBB, size: 0x8, addend: 0x0, symName: __ZNSt4pairIPSt18_Rb_tree_node_baseS1_EC1IRPSt13_Rb_tree_nodeIiERS1_Lb1EEEOT_OT0_, symObjAddr: 0x2FE4, symBinAddr: 0x100006414, symSize: 0x48 }
  - { offsetInCU: 0x17EDC, offset: 0x17EDC, size: 0x8, addend: 0x0, symName: __ZNSt8_Rb_treeIiiSt9_IdentityIiESt4lessIiESaIiEE5beginEv, symObjAddr: 0x2F8C, symBinAddr: 0x1000063BC, symSize: 0x28 }
  - { offsetInCU: 0x17EE4, offset: 0x17EE4, size: 0x8, addend: 0x0, symName: __ZSteqRKSt17_Rb_tree_iteratorIiES2_, symObjAddr: 0x2FB4, symBinAddr: 0x1000063E4, symSize: 0x30 }
  - { offsetInCU: 0x17F0B, offset: 0x17F0B, size: 0x8, addend: 0x0, symName: __ZNSt8_Rb_treeIiiSt9_IdentityIiESt4lessIiESaIiEE8_S_rightEPSt18_Rb_tree_node_base, symObjAddr: 0x2F74, symBinAddr: 0x1000063A4, symSize: 0x18 }
  - { offsetInCU: 0x17F13, offset: 0x17F13, size: 0x8, addend: 0x0, symName: __ZNSt8_Rb_treeIiiSt9_IdentityIiESt4lessIiESaIiEE5beginEv, symObjAddr: 0x2F8C, symBinAddr: 0x1000063BC, symSize: 0x28 }
  - { offsetInCU: 0x17F3D, offset: 0x17F3D, size: 0x8, addend: 0x0, symName: __ZNSt8_Rb_treeIiiSt9_IdentityIiESt4lessIiESaIiEE7_S_leftEPSt18_Rb_tree_node_base, symObjAddr: 0x2F5C, symBinAddr: 0x10000638C, symSize: 0x18 }
  - { offsetInCU: 0x17F45, offset: 0x17F45, size: 0x8, addend: 0x0, symName: __ZNSt8_Rb_treeIiiSt9_IdentityIiESt4lessIiESaIiEE8_S_rightEPSt18_Rb_tree_node_base, symObjAddr: 0x2F74, symBinAddr: 0x1000063A4, symSize: 0x18 }
  - { offsetInCU: 0x17F6F, offset: 0x17F6F, size: 0x8, addend: 0x0, symName: __ZNKSt4lessIiEclERKiS2_, symObjAddr: 0x2F28, symBinAddr: 0x100006358, symSize: 0x34 }
  - { offsetInCU: 0x17F77, offset: 0x17F77, size: 0x8, addend: 0x0, symName: __ZNSt8_Rb_treeIiiSt9_IdentityIiESt4lessIiESaIiEE7_S_leftEPSt18_Rb_tree_node_base, symObjAddr: 0x2F5C, symBinAddr: 0x10000638C, symSize: 0x18 }
  - { offsetInCU: 0x17FC6, offset: 0x17FC6, size: 0x8, addend: 0x0, symName: __ZNSt8_Rb_treeIiiSt9_IdentityIiESt4lessIiESaIiEE6_S_keyEPKSt13_Rb_tree_nodeIiE, symObjAddr: 0x2F00, symBinAddr: 0x100006330, symSize: 0x28 }
  - { offsetInCU: 0x17FCE, offset: 0x17FCE, size: 0x8, addend: 0x0, symName: __ZNKSt4lessIiEclERKiS2_, symObjAddr: 0x2F28, symBinAddr: 0x100006358, symSize: 0x34 }
  - { offsetInCU: 0x180BE, offset: 0x180BE, size: 0x8, addend: 0x0, symName: __ZNSt8__detail14_Node_iteratorISt4pairIKNSt7__cxx1112basic_stringIcSt11char_traitsIcESaIcEEESt3setIiSt4lessIiESaIiEEELb0ELb1EEC1EPNS_10_Hash_nodeISE_Lb1EEE, symObjAddr: 0x2ED8, symBinAddr: 0x100006308, symSize: 0x28 }
  - { offsetInCU: 0x180C6, offset: 0x180C6, size: 0x8, addend: 0x0, symName: __ZNSt8_Rb_treeIiiSt9_IdentityIiESt4lessIiESaIiEE6_S_keyEPKSt13_Rb_tree_nodeIiE, symObjAddr: 0x2F00, symBinAddr: 0x100006330, symSize: 0x28 }
  - { offsetInCU: 0x1805C, offset: 0x1805C, size: 0x8, addend: 0x0, symName: __ZNSt10_HashtableINSt7__cxx1112basic_stringIcSt11char_traitsIcESaIcEEESt4pairIKS5_St3setIiSt4lessIiESaIiEEESaISD_ENSt8__detail10_Select1stESt8equal_toIS5_ESt4hashIS5_ENSF_18_Mod_range_hashingENSF_20_Default_ranged_hashENSF_20_Prime_rehash_policyENSF_17_Hashtable_traitsILb1ELb0ELb1EEEE22_M_insert_bucket_beginEmPNSF_10_Hash_nodeISD_Lb1EEE, symObjAddr: 0x2DCC, symBinAddr: 0x1000061FC, symSize: 0x10C }
  - { offsetInCU: 0x18064, offset: 0x18064, size: 0x8, addend: 0x0, symName: __ZNSt8__detail14_Node_iteratorISt4pairIKNSt7__cxx1112basic_stringIcSt11char_traitsIcESaIcEEESt3setIiSt4lessIiESaIiEEELb0ELb1EEC1EPNS_10_Hash_nodeISE_Lb1EEE, symObjAddr: 0x2ED8, symBinAddr: 0x100006308, symSize: 0x28 }
  - { offsetInCU: 0x180B3, offset: 0x180B3, size: 0x8, addend: 0x0, symName: __ZNKSt8__detail15_Hash_code_baseINSt7__cxx1112basic_stringIcSt11char_traitsIcESaIcEEESt4pairIKS6_St3setIiSt4lessIiESaIiEEENS_10_Select1stESt4hashIS6_ENS_18_Mod_range_hashingENS_20_Default_ranged_hashELb1EE13_M_store_codeERNS_21_Hash_node_code_cacheILb1EEEm, symObjAddr: 0x2DA4, symBinAddr: 0x1000061D4, symSize: 0x28 }
  - { offsetInCU: 0x180BB, offset: 0x180BB, size: 0x8, addend: 0x0, symName: __ZNSt10_HashtableINSt7__cxx1112basic_stringIcSt11char_traitsIcESaIcEEESt4pairIKS5_St3setIiSt4lessIiESaIiEEESaISD_ENSt8__detail10_Select1stESt8equal_toIS5_ESt4hashIS5_ENSF_18_Mod_range_hashingENSF_20_Default_ranged_hashENSF_20_Prime_rehash_policyENSF_17_Hashtable_traitsILb1ELb0ELb1EEEE22_M_insert_bucket_beginEmPNSF_10_Hash_nodeISD_Lb1EEE, symObjAddr: 0x2DCC, symBinAddr: 0x1000061FC, symSize: 0x10C }
  - { offsetInCU: 0x1810A, offset: 0x1810A, size: 0x8, addend: 0x0, symName: __ZNSt10_HashtableINSt7__cxx1112basic_stringIcSt11char_traitsIcESaIcEEESt4pairIKS5_St3setIiSt4lessIiESaIiEEESaISD_ENSt8__detail10_Select1stESt8equal_toIS5_ESt4hashIS5_ENSF_18_Mod_range_hashingENSF_20_Default_ranged_hashENSF_20_Prime_rehash_policyENSF_17_Hashtable_traitsILb1ELb0ELb1EEEE9_M_rehashEmRKm, symObjAddr: 0x2D38, symBinAddr: 0x100006168, symSize: 0x6C }
  - { offsetInCU: 0x18112, offset: 0x18112, size: 0x8, addend: 0x0, symName: __ZNKSt8__detail15_Hash_code_baseINSt7__cxx1112basic_stringIcSt11char_traitsIcESaIcEEESt4pairIKS6_St3setIiSt4lessIiESaIiEEENS_10_Select1stESt4hashIS6_ENS_18_Mod_range_hashingENS_20_Default_ranged_hashELb1EE13_M_store_codeERNS_21_Hash_node_code_cacheILb1EEEm, symObjAddr: 0x2DA4, symBinAddr: 0x1000061D4, symSize: 0x28 }
  - { offsetInCU: 0x18161, offset: 0x18161, size: 0x8, addend: 0x0, symName: __ZNSt8__detail16_Hashtable_allocISaINS_10_Hash_nodeISt4pairIKNSt7__cxx1112basic_stringIcSt11char_traitsIcESaIcEEESt3setIiSt4lessIiESaIiEEELb1EEEEE16_M_allocate_nodeIJRKSt21piecewise_construct_tSt5tupleIJRS9_EESN_IJEEEEEPSG_DpOT_, symObjAddr: 0x2B54, symBinAddr: 0x100005F84, symSize: 0x1E4 }
  - { offsetInCU: 0x18169, offset: 0x18169, size: 0x8, addend: 0x0, symName: __ZNSt10_HashtableINSt7__cxx1112basic_stringIcSt11char_traitsIcESaIcEEESt4pairIKS5_St3setIiSt4lessIiESaIiEEESaISD_ENSt8__detail10_Select1stESt8equal_toIS5_ESt4hashIS5_ENSF_18_Mod_range_hashingENSF_20_Default_ranged_hashENSF_20_Prime_rehash_policyENSF_17_Hashtable_traitsILb1ELb0ELb1EEEE9_M_rehashEmRKm, symObjAddr: 0x2D38, symBinAddr: 0x100006168, symSize: 0x6C }
  - { offsetInCU: 0x183C6, offset: 0x183C6, size: 0x8, addend: 0x0, symName: __ZNSt8__detail10_Hash_nodeISt4pairIKNSt7__cxx1112basic_stringIcSt11char_traitsIcESaIcEEESt3setIiSt4lessIiESaIiEEELb1EEC1Ev, symObjAddr: 0x2B34, symBinAddr: 0x100005F64, symSize: 0x20 }
  - { offsetInCU: 0x183CE, offset: 0x183CE, size: 0x8, addend: 0x0, symName: __ZNSt8__detail16_Hashtable_allocISaINS_10_Hash_nodeISt4pairIKNSt7__cxx1112basic_stringIcSt11char_traitsIcESaIcEEESt3setIiSt4lessIiESaIiEEELb1EEEEE16_M_allocate_nodeIJRKSt21piecewise_construct_tSt5tupleIJRS9_EESN_IJEEEEEPSG_DpOT_, symObjAddr: 0x2B54, symBinAddr: 0x100005F84, symSize: 0x1E4 }
  - { offsetInCU: 0x183D3, offset: 0x183D3, size: 0x8, addend: 0x0, symName: __ZSt7forwardISt5tupleIJEEEOT_RNSt16remove_referenceIS2_E4typeE, symObjAddr: 0x2B20, symBinAddr: 0x100005F50, symSize: 0x14 }
  - { offsetInCU: 0x183DB, offset: 0x183DB, size: 0x8, addend: 0x0, symName: __ZNSt8__detail10_Hash_nodeISt4pairIKNSt7__cxx1112basic_stringIcSt11char_traitsIcESaIcEEESt3setIiSt4lessIiESaIiEEELb1EEC1Ev, symObjAddr: 0x2B34, symBinAddr: 0x100005F64, symSize: 0x20 }
  - { offsetInCU: 0x184B3, offset: 0x184B3, size: 0x8, addend: 0x0, symName: __ZSt7forwardISt5tupleIJRKNSt7__cxx1112basic_stringIcSt11char_traitsIcESaIcEEEEEEOT_RNSt16remove_referenceISA_E4typeE, symObjAddr: 0x2B0C, symBinAddr: 0x100005F3C, symSize: 0x14 }
  - { offsetInCU: 0x184BB, offset: 0x184BB, size: 0x8, addend: 0x0, symName: __ZSt7forwardISt5tupleIJEEEOT_RNSt16remove_referenceIS2_E4typeE, symObjAddr: 0x2B20, symBinAddr: 0x100005F50, symSize: 0x14 }
  - { offsetInCU: 0x1849E, offset: 0x1849E, size: 0x8, addend: 0x0, symName: __ZSt7forwardIRKSt21piecewise_construct_tEOT_RNSt16remove_referenceIS3_E4typeE, symObjAddr: 0x2AF8, symBinAddr: 0x100005F28, symSize: 0x14 }
  - { offsetInCU: 0x184A6, offset: 0x184A6, size: 0x8, addend: 0x0, symName: __ZSt7forwardISt5tupleIJRKNSt7__cxx1112basic_stringIcSt11char_traitsIcESaIcEEEEEEOT_RNSt16remove_referenceISA_E4typeE, symObjAddr: 0x2B0C, symBinAddr: 0x100005F3C, symSize: 0x14 }
  - { offsetInCU: 0x184F6, offset: 0x184F6, size: 0x8, addend: 0x0, symName: __ZNSt11_Tuple_implILm0EJRKNSt7__cxx1112basic_stringIcSt11char_traitsIcESaIcEEEEEC2ES7_, symObjAddr: 0x2AD0, symBinAddr: 0x100005F00, symSize: 0x28 }
  - { offsetInCU: 0x184FE, offset: 0x184FE, size: 0x8, addend: 0x0, symName: __ZSt7forwardIRKSt21piecewise_construct_tEOT_RNSt16remove_referenceIS3_E4typeE, symObjAddr: 0x2AF8, symBinAddr: 0x100005F28, symSize: 0x14 }
  - { offsetInCU: 0x184D9, offset: 0x184D9, size: 0x8, addend: 0x0, symName: __ZNSt8__detail21_Hash_node_value_baseISt4pairIKNSt7__cxx1112basic_stringIcSt11char_traitsIcESaIcEEESt3setIiSt4lessIiESaIiEEEE9_M_valptrEv, symObjAddr: 0x2AB4, symBinAddr: 0x100005EE4, symSize: 0x1C }
  - { offsetInCU: 0x184E1, offset: 0x184E1, size: 0x8, addend: 0x0, symName: __ZNSt11_Tuple_implILm0EJRKNSt7__cxx1112basic_stringIcSt11char_traitsIcESaIcEEEEEC2ES7_, symObjAddr: 0x2AD0, symBinAddr: 0x100005F00, symSize: 0x28 }
  - { offsetInCU: 0x18508, offset: 0x18508, size: 0x8, addend: 0x0, symName: __ZNKSt10_HashtableINSt7__cxx1112basic_stringIcSt11char_traitsIcESaIcEEESt4pairIKS5_St3setIiSt4lessIiESaIiEEESaISD_ENSt8__detail10_Select1stESt8equal_toIS5_ESt4hashIS5_ENSF_18_Mod_range_hashingENSF_20_Default_ranged_hashENSF_20_Prime_rehash_policyENSF_17_Hashtable_traitsILb1ELb0ELb1EEEE19_M_find_before_nodeEmRS7_m, symObjAddr: 0x29B4, symBinAddr: 0x100005DE4, symSize: 0x100 }
  - { offsetInCU: 0x18510, offset: 0x18510, size: 0x8, addend: 0x0, symName: __ZNSt8__detail21_Hash_node_value_baseISt4pairIKNSt7__cxx1112basic_stringIcSt11char_traitsIcESaIcEEESt3setIiSt4lessIiESaIiEEEE9_M_valptrEv, symObjAddr: 0x2AB4, symBinAddr: 0x100005EE4, symSize: 0x1C }
  - { offsetInCU: 0x185AD, offset: 0x185AD, size: 0x8, addend: 0x0, symName: __ZNKSt8__detail15_Hash_code_baseINSt7__cxx1112basic_stringIcSt11char_traitsIcESaIcEEESt4pairIKS6_St3setIiSt4lessIiESaIiEEENS_10_Select1stESt4hashIS6_ENS_18_Mod_range_hashingENS_20_Default_ranged_hashELb1EE15_M_bucket_indexEmm, symObjAddr: 0x2988, symBinAddr: 0x100005DB8, symSize: 0x2C }
  - { offsetInCU: 0x185B5, offset: 0x185B5, size: 0x8, addend: 0x0, symName: __ZNKSt10_HashtableINSt7__cxx1112basic_stringIcSt11char_traitsIcESaIcEEESt4pairIKS5_St3setIiSt4lessIiESaIiEEESaISD_ENSt8__detail10_Select1stESt8equal_toIS5_ESt4hashIS5_ENSF_18_Mod_range_hashingENSF_20_Default_ranged_hashENSF_20_Prime_rehash_policyENSF_17_Hashtable_traitsILb1ELb0ELb1EEEE19_M_find_before_nodeEmRS7_m, symObjAddr: 0x29B4, symBinAddr: 0x100005DE4, symSize: 0x100 }
  - { offsetInCU: 0x18604, offset: 0x18604, size: 0x8, addend: 0x0, symName: __ZNKSt15__str_hash_baseIcSaIcENSt7__cxx1112basic_stringIcSt11char_traitsIcES0_EEEclERKS5_, symObjAddr: 0x2940, symBinAddr: 0x100005D70, symSize: 0x48 }
  - { offsetInCU: 0x1860C, offset: 0x1860C, size: 0x8, addend: 0x0, symName: __ZNKSt8__detail15_Hash_code_baseINSt7__cxx1112basic_stringIcSt11char_traitsIcESaIcEEESt4pairIKS6_St3setIiSt4lessIiESaIiEEENS_10_Select1stESt4hashIS6_ENS_18_Mod_range_hashingENS_20_Default_ranged_hashELb1EE15_M_bucket_indexEmm, symObjAddr: 0x2988, symBinAddr: 0x100005DB8, symSize: 0x2C }
  - { offsetInCU: 0x18647, offset: 0x18647, size: 0x8, addend: 0x0, symName: __ZNKSt8__detail15_Hash_code_baseINSt7__cxx1112basic_stringIcSt11char_traitsIcESaIcEEESt4pairIKS6_St3setIiSt4lessIiESaIiEEENS_10_Select1stESt4hashIS6_ENS_18_Mod_range_hashingENS_20_Default_ranged_hashELb1EE7_M_hashEv, symObjAddr: 0x2924, symBinAddr: 0x100005D54, symSize: 0x1C }
  - { offsetInCU: 0x1864F, offset: 0x1864F, size: 0x8, addend: 0x0, symName: __ZNKSt15__str_hash_baseIcSaIcENSt7__cxx1112basic_stringIcSt11char_traitsIcES0_EEEclERKS5_, symObjAddr: 0x2940, symBinAddr: 0x100005D70, symSize: 0x48 }
  - { offsetInCU: 0x18676, offset: 0x18676, size: 0x8, addend: 0x0, symName: __ZNSt15__new_allocatorINSt7__cxx1112basic_stringIcSt11char_traitsIcESaIcEEEE10deallocateEPS5_m, symObjAddr: 0x28F4, symBinAddr: 0x100005D24, symSize: 0x30 }
  - { offsetInCU: 0x1867E, offset: 0x1867E, size: 0x8, addend: 0x0, symName: __ZNKSt8__detail15_Hash_code_baseINSt7__cxx1112basic_stringIcSt11char_traitsIcESaIcEEESt4pairIKS6_St3setIiSt4lessIiESaIiEEENS_10_Select1stESt4hashIS6_ENS_18_Mod_range_hashingENS_20_Default_ranged_hashELb1EE7_M_hashEv, symObjAddr: 0x2924, symBinAddr: 0x100005D54, symSize: 0x1C }
  - { offsetInCU: 0x186CB, offset: 0x186CB, size: 0x8, addend: 0x0, symName: __ZNSt8__detail16_Hashtable_allocISaINS_10_Hash_nodeISt4pairIKNSt7__cxx1112basic_stringIcSt11char_traitsIcESaIcEEESt3setIiSt4lessIiESaIiEEELb1EEEEE21_M_deallocate_bucketsEPPNS_15_Hash_node_baseEm, symObjAddr: 0x287C, symBinAddr: 0x100005CAC, symSize: 0x78 }
  - { offsetInCU: 0x186D3, offset: 0x186D3, size: 0x8, addend: 0x0, symName: __ZNSt15__new_allocatorINSt7__cxx1112basic_stringIcSt11char_traitsIcESaIcEEEE10deallocateEPS5_m, symObjAddr: 0x28F4, symBinAddr: 0x100005D24, symSize: 0x30 }
  - { offsetInCU: 0x18801, offset: 0x18801, size: 0x8, addend: 0x0, symName: __ZNKSt10_HashtableINSt7__cxx1112basic_stringIcSt11char_traitsIcESaIcEEESt4pairIKS5_St3setIiSt4lessIiESaIiEEESaISD_ENSt8__detail10_Select1stESt8equal_toIS5_ESt4hashIS5_ENSF_18_Mod_range_hashingENSF_20_Default_ranged_hashENSF_20_Prime_rehash_policyENSF_17_Hashtable_traitsILb1ELb0ELb1EEEE21_M_uses_single_bucketEPPNSF_15_Hash_node_baseE, symObjAddr: 0x2840, symBinAddr: 0x100005C70, symSize: 0x3C }
  - { offsetInCU: 0x18809, offset: 0x18809, size: 0x8, addend: 0x0, symName: __ZNSt8__detail16_Hashtable_allocISaINS_10_Hash_nodeISt4pairIKNSt7__cxx1112basic_stringIcSt11char_traitsIcESaIcEEESt3setIiSt4lessIiESaIiEEELb1EEEEE21_M_deallocate_bucketsEPPNS_15_Hash_node_baseEm, symObjAddr: 0x287C, symBinAddr: 0x100005CAC, symSize: 0x78 }
  - { offsetInCU: 0x18844, offset: 0x18844, size: 0x8, addend: 0x0, symName: __ZNSt8__detail16_Hashtable_allocISaINS_10_Hash_nodeISt4pairIKNSt7__cxx1112basic_stringIcSt11char_traitsIcESaIcEEESt3setIiSt4lessIiESaIiEEELb1EEEEE18_M_deallocate_nodeEPSG_, symObjAddr: 0x27D0, symBinAddr: 0x100005C00, symSize: 0x70 }
  - { offsetInCU: 0x1884C, offset: 0x1884C, size: 0x8, addend: 0x0, symName: __ZNKSt10_HashtableINSt7__cxx1112basic_stringIcSt11char_traitsIcESaIcEEESt4pairIKS5_St3setIiSt4lessIiESaIiEEESaISD_ENSt8__detail10_Select1stESt8equal_toIS5_ESt4hashIS5_ENSF_18_Mod_range_hashingENSF_20_Default_ranged_hashENSF_20_Prime_rehash_policyENSF_17_Hashtable_traitsILb1ELb0ELb1EEEE21_M_uses_single_bucketEPPNSF_15_Hash_node_baseE, symObjAddr: 0x2840, symBinAddr: 0x100005C70, symSize: 0x3C }
  - { offsetInCU: 0x188EB, offset: 0x188EB, size: 0x8, addend: 0x0, symName: __ZNKSt8__detail10_Hash_nodeISt4pairIKNSt7__cxx1112basic_stringIcSt11char_traitsIcESaIcEEESt3setIiSt4lessIiESaIiEEELb1EE7_M_nextEv, symObjAddr: 0x27B8, symBinAddr: 0x100005BE8, symSize: 0x18 }
  - { offsetInCU: 0x188F3, offset: 0x188F3, size: 0x8, addend: 0x0, symName: __ZNSt8__detail16_Hashtable_allocISaINS_10_Hash_nodeISt4pairIKNSt7__cxx1112basic_stringIcSt11char_traitsIcESaIcEEESt3setIiSt4lessIiESaIiEEELb1EEEEE18_M_deallocate_nodeEPSG_, symObjAddr: 0x27D0, symBinAddr: 0x100005C00, symSize: 0x70 }
  - { offsetInCU: 0x18996, offset: 0x18996, size: 0x8, addend: 0x0, symName: __ZNSt6vectorINSt7__cxx1112basic_stringIcSt11char_traitsIcESaIcEEESaIS5_EE4backEv, symObjAddr: 0x2780, symBinAddr: 0x100005BB0, symSize: 0x38 }
  - { offsetInCU: 0x1899E, offset: 0x1899E, size: 0x8, addend: 0x0, symName: __ZNKSt8__detail10_Hash_nodeISt4pairIKNSt7__cxx1112basic_stringIcSt11char_traitsIcESaIcEEESt3setIiSt4lessIiESaIiEEELb1EE7_M_nextEv, symObjAddr: 0x27B8, symBinAddr: 0x100005BE8, symSize: 0x18 }
  - { offsetInCU: 0x189C5, offset: 0x189C5, size: 0x8, addend: 0x0, symName: __ZNSt6vectorINSt7__cxx1112basic_stringIcSt11char_traitsIcESaIcEEESaIS5_EE17_M_realloc_insertIJS5_EEEvN9__gnu_cxx17__normal_iteratorIPS5_S7_EEDpOT_, symObjAddr: 0x25BC, symBinAddr: 0x1000059EC, symSize: 0x1C4 }
  - { offsetInCU: 0x189CD, offset: 0x189CD, size: 0x8, addend: 0x0, symName: __ZNSt6vectorINSt7__cxx1112basic_stringIcSt11char_traitsIcESaIcEEESaIS5_EE4backEv, symObjAddr: 0x2780, symBinAddr: 0x100005BB0, symSize: 0x38 }
  - { offsetInCU: 0x18C14, offset: 0x18C14, size: 0x8, addend: 0x0, symName: __ZSt7forwardINSt7__cxx1112basic_stringIcSt11char_traitsIcESaIcEEEEOT_RNSt16remove_referenceIS6_E4typeE, symObjAddr: 0x25A8, symBinAddr: 0x1000059D8, symSize: 0x14 }
  - { offsetInCU: 0x18C1C, offset: 0x18C1C, size: 0x8, addend: 0x0, symName: __ZNSt6vectorINSt7__cxx1112basic_stringIcSt11char_traitsIcESaIcEEESaIS5_EE17_M_realloc_insertIJS5_EEEvN9__gnu_cxx17__normal_iteratorIPS5_S7_EEDpOT_, symObjAddr: 0x25BC, symBinAddr: 0x1000059EC, symSize: 0x1C4 }
  - { offsetInCU: 0x18BD2, offset: 0x18BD2, size: 0x8, addend: 0x0, symName: __ZNK9__gnu_cxx16__aligned_membufIiE6_M_ptrEv, symObjAddr: 0x258C, symBinAddr: 0x1000059BC, symSize: 0x1C }
  - { offsetInCU: 0x18BDA, offset: 0x18BDA, size: 0x8, addend: 0x0, symName: __ZSt7forwardINSt7__cxx1112basic_stringIcSt11char_traitsIcESaIcEEEEOT_RNSt16remove_referenceIS6_E4typeE, symObjAddr: 0x25A8, symBinAddr: 0x1000059D8, symSize: 0x14 }
  - { offsetInCU: 0x18C68, offset: 0x18C68, size: 0x8, addend: 0x0, symName: __ZNSt23_Rb_tree_const_iteratorIiEC1EPKSt18_Rb_tree_node_base, symObjAddr: 0x2568, symBinAddr: 0x100005998, symSize: 0x24 }
  - { offsetInCU: 0x18C70, offset: 0x18C70, size: 0x8, addend: 0x0, symName: __ZNK9__gnu_cxx16__aligned_membufIiE6_M_ptrEv, symObjAddr: 0x258C, symBinAddr: 0x1000059BC, symSize: 0x1C }
  - { offsetInCU: 0x18C65, offset: 0x18C65, size: 0x8, addend: 0x0, symName: __ZNSt8_Rb_treeIiiSt9_IdentityIiESt4lessIiESaIiEE14_M_upper_boundEPSt13_Rb_tree_nodeIiEPSt18_Rb_tree_node_baseRKi, symObjAddr: 0x24D0, symBinAddr: 0x100005900, symSize: 0x98 }
  - { offsetInCU: 0x18C6D, offset: 0x18C6D, size: 0x8, addend: 0x0, symName: __ZNSt23_Rb_tree_const_iteratorIiEC1EPKSt18_Rb_tree_node_base, symObjAddr: 0x2568, symBinAddr: 0x100005998, symSize: 0x24 }
  - { offsetInCU: 0x18CD0, offset: 0x18CD0, size: 0x8, addend: 0x0, symName: __ZNSt8_Rb_treeIiiSt9_IdentityIiESt4lessIiESaIiEE6_M_endEv, symObjAddr: 0x24B8, symBinAddr: 0x1000058E8, symSize: 0x18 }
  - { offsetInCU: 0x18CD8, offset: 0x18CD8, size: 0x8, addend: 0x0, symName: __ZNSt8_Rb_treeIiiSt9_IdentityIiESt4lessIiESaIiEE14_M_upper_boundEPSt13_Rb_tree_nodeIiEPSt18_Rb_tree_node_baseRKi, symObjAddr: 0x24D0, symBinAddr: 0x100005900, symSize: 0x98 }
  - { offsetInCU: 0x18CFF, offset: 0x18CFF, size: 0x8, addend: 0x0, symName: __ZNSt8_Rb_treeIiiSt9_IdentityIiESt4lessIiESaIiEE8_M_beginEv, symObjAddr: 0x249C, symBinAddr: 0x1000058CC, symSize: 0x1C }
  - { offsetInCU: 0x18D07, offset: 0x18D07, size: 0x8, addend: 0x0, symName: __ZNSt8_Rb_treeIiiSt9_IdentityIiESt4lessIiESaIiEE6_M_endEv, symObjAddr: 0x24B8, symBinAddr: 0x1000058E8, symSize: 0x18 }
  - { offsetInCU: 0x18D38, offset: 0x18D38, size: 0x8, addend: 0x0, symName: __ZNSt8_Rb_treeIiiSt9_IdentityIiESt4lessIiESaIiEE10_M_insert_IiNS5_11_Alloc_nodeEEESt17_Rb_tree_iteratorIiEPSt18_Rb_tree_node_baseSB_OT_RT0_, symObjAddr: 0x23A8, symBinAddr: 0x1000057D8, symSize: 0xF4 }
  - { offsetInCU: 0x18D40, offset: 0x18D40, size: 0x8, addend: 0x0, symName: __ZNSt8_Rb_treeIiiSt9_IdentityIiESt4lessIiESaIiEE8_M_beginEv, symObjAddr: 0x249C, symBinAddr: 0x1000058CC, symSize: 0x1C }
  - { offsetInCU: 0x18DFA, offset: 0x18DFA, size: 0x8, addend: 0x0, symName: __ZNKSt9_IdentityIiEclERi, symObjAddr: 0x2390, symBinAddr: 0x1000057C0, symSize: 0x18 }
  - { offsetInCU: 0x18E02, offset: 0x18E02, size: 0x8, addend: 0x0, symName: __ZNSt8_Rb_treeIiiSt9_IdentityIiESt4lessIiESaIiEE10_M_insert_IiNS5_11_Alloc_nodeEEESt17_Rb_tree_iteratorIiEPSt18_Rb_tree_node_baseSB_OT_RT0_, symObjAddr: 0x23A8, symBinAddr: 0x1000057D8, symSize: 0xF4 }
  - { offsetInCU: 0x18E85, offset: 0x18E85, size: 0x8, addend: 0x0, symName: __ZSt7forwardIRbEOT_RNSt16remove_referenceIS1_E4typeE, symObjAddr: 0x237C, symBinAddr: 0x1000057AC, symSize: 0x14 }
  - { offsetInCU: 0x18E8D, offset: 0x18E8D, size: 0x8, addend: 0x0, symName: __ZNKSt9_IdentityIiEclERi, symObjAddr: 0x2390, symBinAddr: 0x1000057C0, symSize: 0x18 }
  - { offsetInCU: 0x18F07, offset: 0x18F07, size: 0x8, addend: 0x0, symName: __ZSt7forwardIRSt17_Rb_tree_iteratorIiEEOT_RNSt16remove_referenceIS3_E4typeE, symObjAddr: 0x2368, symBinAddr: 0x100005798, symSize: 0x14 }
  - { offsetInCU: 0x18F0F, offset: 0x18F0F, size: 0x8, addend: 0x0, symName: __ZSt7forwardIRbEOT_RNSt16remove_referenceIS1_E4typeE, symObjAddr: 0x237C, symBinAddr: 0x1000057AC, symSize: 0x14 }
  - { offsetInCU: 0x18F45, offset: 0x18F45, size: 0x8, addend: 0x0, symName: __ZNSt17_Rb_tree_iteratorIiEC1EPSt18_Rb_tree_node_base, symObjAddr: 0x2344, symBinAddr: 0x100005774, symSize: 0x24 }
  - { offsetInCU: 0x18F4D, offset: 0x18F4D, size: 0x8, addend: 0x0, symName: __ZSt7forwardIRSt17_Rb_tree_iteratorIiEEOT_RNSt16remove_referenceIS3_E4typeE, symObjAddr: 0x2368, symBinAddr: 0x100005798, symSize: 0x14 }
  - { offsetInCU: 0x18FD8, offset: 0x18FD8, size: 0x8, addend: 0x0, symName: __ZNSt4pairISt17_Rb_tree_iteratorIiEbEC1IS1_bLb1EEEOT_OT0_, symObjAddr: 0x22F8, symBinAddr: 0x100005728, symSize: 0x4C }
  - { offsetInCU: 0x18FE0, offset: 0x18FE0, size: 0x8, addend: 0x0, symName: __ZNSt17_Rb_tree_iteratorIiEC1EPSt18_Rb_tree_node_base, symObjAddr: 0x2344, symBinAddr: 0x100005774, symSize: 0x24 }
  - { offsetInCU: 0x18FFE, offset: 0x18FFE, size: 0x8, addend: 0x0, symName: __ZNSt8_Rb_treeIiiSt9_IdentityIiESt4lessIiESaIiEE10_M_insert_IRKiNS5_11_Alloc_nodeEEESt17_Rb_tree_iteratorIiEPSt18_Rb_tree_node_baseSD_OT_RT0_, symObjAddr: 0x2204, symBinAddr: 0x100005634, symSize: 0xF4 }
  - { offsetInCU: 0x19006, offset: 0x19006, size: 0x8, addend: 0x0, symName: __ZNSt4pairISt17_Rb_tree_iteratorIiEbEC1IS1_bLb1EEEOT_OT0_, symObjAddr: 0x22F8, symBinAddr: 0x100005728, symSize: 0x4C }
  - { offsetInCU: 0x1910E, offset: 0x1910E, size: 0x8, addend: 0x0, symName: __ZSt7forwardIRKiEOT_RNSt16remove_referenceIS2_E4typeE, symObjAddr: 0x21F0, symBinAddr: 0x100005620, symSize: 0x14 }
  - { offsetInCU: 0x19116, offset: 0x19116, size: 0x8, addend: 0x0, symName: __ZNSt8_Rb_treeIiiSt9_IdentityIiESt4lessIiESaIiEE10_M_insert_IRKiNS5_11_Alloc_nodeEEESt17_Rb_tree_iteratorIiEPSt18_Rb_tree_node_baseSD_OT_RT0_, symObjAddr: 0x2204, symBinAddr: 0x100005634, symSize: 0xF4 }
  - { offsetInCU: 0x19183, offset: 0x19183, size: 0x8, addend: 0x0, symName: __ZNSt8_Rb_treeIiiSt9_IdentityIiESt4lessIiESaIiEE11_Alloc_nodeC1ERS5_, symObjAddr: 0x21CC, symBinAddr: 0x1000055FC, symSize: 0x24 }
  - { offsetInCU: 0x1918B, offset: 0x1918B, size: 0x8, addend: 0x0, symName: __ZSt7forwardIRKiEOT_RNSt16remove_referenceIS2_E4typeE, symObjAddr: 0x21F0, symBinAddr: 0x100005620, symSize: 0x14 }
  - { offsetInCU: 0x19178, offset: 0x19178, size: 0x8, addend: 0x0, symName: __ZNKSt9_IdentityIiEclERKi, symObjAddr: 0x21B4, symBinAddr: 0x1000055E4, symSize: 0x18 }
  - { offsetInCU: 0x19180, offset: 0x19180, size: 0x8, addend: 0x0, symName: __ZNSt8_Rb_treeIiiSt9_IdentityIiESt4lessIiESaIiEE11_Alloc_nodeC1ERS5_, symObjAddr: 0x21CC, symBinAddr: 0x1000055FC, symSize: 0x24 }
  - { offsetInCU: 0x191BB, offset: 0x191BB, size: 0x8, addend: 0x0, symName: __ZNSt8_Rb_treeIiiSt9_IdentityIiESt4lessIiESaIiEE24_M_get_insert_unique_posERKi, symObjAddr: 0x2054, symBinAddr: 0x100005484, symSize: 0x160 }
  - { offsetInCU: 0x191C3, offset: 0x191C3, size: 0x8, addend: 0x0, symName: __ZNKSt9_IdentityIiEclERKi, symObjAddr: 0x21B4, symBinAddr: 0x1000055E4, symSize: 0x18 }
  - { offsetInCU: 0x19253, offset: 0x19253, size: 0x8, addend: 0x0, symName: __ZNKSt8__detail14_Node_iteratorISt4pairIKNSt7__cxx1112basic_stringIcSt11char_traitsIcESaIcEEESt3setIiSt4lessIiESaIiEEELb0ELb1EEptEv, symObjAddr: 0x2030, symBinAddr: 0x100005460, symSize: 0x24 }
  - { offsetInCU: 0x1925B, offset: 0x1925B, size: 0x8, addend: 0x0, symName: __ZNSt8_Rb_treeIiiSt9_IdentityIiESt4lessIiESaIiEE24_M_get_insert_unique_posERKi, symObjAddr: 0x2054, symBinAddr: 0x100005484, symSize: 0x160 }
  - { offsetInCU: 0x19282, offset: 0x19282, size: 0x8, addend: 0x0, symName: __ZNSt10_HashtableINSt7__cxx1112basic_stringIcSt11char_traitsIcESaIcEEESt4pairIKS5_St3setIiSt4lessIiESaIiEEESaISD_ENSt8__detail10_Select1stESt8equal_toIS5_ESt4hashIS5_ENSF_18_Mod_range_hashingENSF_20_Default_ranged_hashENSF_20_Prime_rehash_policyENSF_17_Hashtable_traitsILb1ELb0ELb1EEEE21_M_insert_unique_nodeEmmPNSF_10_Hash_nodeISD_Lb1EEEm, symObjAddr: 0x1F48, symBinAddr: 0x100005378, symSize: 0xE8 }
  - { offsetInCU: 0x1928A, offset: 0x1928A, size: 0x8, addend: 0x0, symName: __ZNKSt8__detail14_Node_iteratorISt4pairIKNSt7__cxx1112basic_stringIcSt11char_traitsIcESaIcEEESt3setIiSt4lessIiESaIiEEELb0ELb1EEptEv, symObjAddr: 0x2030, symBinAddr: 0x100005460, symSize: 0x24 }
  - { offsetInCU: 0x19483, offset: 0x19483, size: 0x8, addend: 0x0, symName: __ZNSt10_HashtableINSt7__cxx1112basic_stringIcSt11char_traitsIcESaIcEEESt4pairIKS5_St3setIiSt4lessIiESaIiEEESaISD_ENSt8__detail10_Select1stESt8equal_toIS5_ESt4hashIS5_ENSF_18_Mod_range_hashingENSF_20_Default_ranged_hashENSF_20_Prime_rehash_policyENSF_17_Hashtable_traitsILb1ELb0ELb1EEEE12_Scoped_nodeD1Ev, symObjAddr: 0x1F04, symBinAddr: 0x100005334, symSize: 0x44 }
  - { offsetInCU: 0x1948B, offset: 0x1948B, size: 0x8, addend: 0x0, symName: __ZNSt10_HashtableINSt7__cxx1112basic_stringIcSt11char_traitsIcESaIcEEESt4pairIKS5_St3setIiSt4lessIiESaIiEEESaISD_ENSt8__detail10_Select1stESt8equal_toIS5_ESt4hashIS5_ENSF_18_Mod_range_hashingENSF_20_Default_ranged_hashENSF_20_Prime_rehash_policyENSF_17_Hashtable_traitsILb1ELb0ELb1EEEE21_M_insert_unique_nodeEmmPNSF_10_Hash_nodeISD_Lb1EEEm, symObjAddr: 0x1F48, symBinAddr: 0x100005378, symSize: 0xE8 }
  - { offsetInCU: 0x19590, offset: 0x19590, size: 0x8, addend: 0x0, symName: __ZNSt10_HashtableINSt7__cxx1112basic_stringIcSt11char_traitsIcESaIcEEESt4pairIKS5_St3setIiSt4lessIiESaIiEEESaISD_ENSt8__detail10_Select1stESt8equal_toIS5_ESt4hashIS5_ENSF_18_Mod_range_hashingENSF_20_Default_ranged_hashENSF_20_Prime_rehash_policyENSF_17_Hashtable_traitsILb1ELb0ELb1EEEE12_Scoped_nodeC1IJRKSt21piecewise_construct_tSt5tupleIJRS7_EESW_IJEEEEEPNSF_16_Hashtable_allocISaINSF_10_Hash_nodeISD_Lb1EEEEEEDpOT_, symObjAddr: 0x1E7C, symBinAddr: 0x1000052AC, symSize: 0x88 }
  - { offsetInCU: 0x19598, offset: 0x19598, size: 0x8, addend: 0x0, symName: __ZNSt10_HashtableINSt7__cxx1112basic_stringIcSt11char_traitsIcESaIcEEESt4pairIKS5_St3setIiSt4lessIiESaIiEEESaISD_ENSt8__detail10_Select1stESt8equal_toIS5_ESt4hashIS5_ENSF_18_Mod_range_hashingENSF_20_Default_ranged_hashENSF_20_Prime_rehash_policyENSF_17_Hashtable_traitsILb1ELb0ELb1EEEE12_Scoped_nodeD1Ev, symObjAddr: 0x1F04, symBinAddr: 0x100005334, symSize: 0x44 }
  - { offsetInCU: 0x19503, offset: 0x19503, size: 0x8, addend: 0x0, symName: __ZNSt5tupleIJRKNSt7__cxx1112basic_stringIcSt11char_traitsIcESaIcEEEEEC1ILb1ELb1EEES7_, symObjAddr: 0x1E54, symBinAddr: 0x100005284, symSize: 0x28 }
  - { offsetInCU: 0x1950B, offset: 0x1950B, size: 0x8, addend: 0x0, symName: __ZNSt10_HashtableINSt7__cxx1112basic_stringIcSt11char_traitsIcESaIcEEESt4pairIKS5_St3setIiSt4lessIiESaIiEEESaISD_ENSt8__detail10_Select1stESt8equal_toIS5_ESt4hashIS5_ENSF_18_Mod_range_hashingENSF_20_Default_ranged_hashENSF_20_Prime_rehash_policyENSF_17_Hashtable_traitsILb1ELb0ELb1EEEE12_Scoped_nodeC1IJRKSt21piecewise_construct_tSt5tupleIJRS7_EESW_IJEEEEEPNSF_16_Hashtable_allocISaINSF_10_Hash_nodeISD_Lb1EEEEEEDpOT_, symObjAddr: 0x1E7C, symBinAddr: 0x1000052AC, symSize: 0x88 }
  - { offsetInCU: 0x194F6, offset: 0x194F6, size: 0x8, addend: 0x0, symName: __ZNSt8__detail21_Hash_node_value_baseISt4pairIKNSt7__cxx1112basic_stringIcSt11char_traitsIcESaIcEEESt3setIiSt4lessIiESaIiEEEE4_M_vEv, symObjAddr: 0x1E38, symBinAddr: 0x100005268, symSize: 0x1C }
  - { offsetInCU: 0x194FE, offset: 0x194FE, size: 0x8, addend: 0x0, symName: __ZNSt5tupleIJRKNSt7__cxx1112basic_stringIcSt11char_traitsIcESaIcEEEEEC1ILb1ELb1EEES7_, symObjAddr: 0x1E54, symBinAddr: 0x100005284, symSize: 0x28 }
  - { offsetInCU: 0x19525, offset: 0x19525, size: 0x8, addend: 0x0, symName: __ZNKSt10_HashtableINSt7__cxx1112basic_stringIcSt11char_traitsIcESaIcEEESt4pairIKS5_St3setIiSt4lessIiESaIiEEESaISD_ENSt8__detail10_Select1stESt8equal_toIS5_ESt4hashIS5_ENSF_18_Mod_range_hashingENSF_20_Default_ranged_hashENSF_20_Prime_rehash_policyENSF_17_Hashtable_traitsILb1ELb0ELb1EEEE12_M_find_nodeEmRS7_m, symObjAddr: 0x1DE4, symBinAddr: 0x100005214, symSize: 0x54 }
  - { offsetInCU: 0x1952D, offset: 0x1952D, size: 0x8, addend: 0x0, symName: __ZNSt8__detail21_Hash_node_value_baseISt4pairIKNSt7__cxx1112basic_stringIcSt11char_traitsIcESaIcEEESt3setIiSt4lessIiESaIiEEEE4_M_vEv, symObjAddr: 0x1E38, symBinAddr: 0x100005268, symSize: 0x1C }
  - { offsetInCU: 0x195A4, offset: 0x195A4, size: 0x8, addend: 0x0, symName: __ZNKSt10_HashtableINSt7__cxx1112basic_stringIcSt11char_traitsIcESaIcEEESt4pairIKS5_St3setIiSt4lessIiESaIiEEESaISD_ENSt8__detail10_Select1stESt8equal_toIS5_ESt4hashIS5_ENSF_18_Mod_range_hashingENSF_20_Default_ranged_hashENSF_20_Prime_rehash_policyENSF_17_Hashtable_traitsILb1ELb0ELb1EEEE15_M_bucket_indexEm, symObjAddr: 0x1DB4, symBinAddr: 0x1000051E4, symSize: 0x30 }
  - { offsetInCU: 0x195AC, offset: 0x195AC, size: 0x8, addend: 0x0, symName: __ZNKSt10_HashtableINSt7__cxx1112basic_stringIcSt11char_traitsIcESaIcEEESt4pairIKS5_St3setIiSt4lessIiESaIiEEESaISD_ENSt8__detail10_Select1stESt8equal_toIS5_ESt4hashIS5_ENSF_18_Mod_range_hashingENSF_20_Default_ranged_hashENSF_20_Prime_rehash_policyENSF_17_Hashtable_traitsILb1ELb0ELb1EEEE12_M_find_nodeEmRS7_m, symObjAddr: 0x1DE4, symBinAddr: 0x100005214, symSize: 0x54 }
  - { offsetInCU: 0x195E7, offset: 0x195E7, size: 0x8, addend: 0x0, symName: __ZNKSt8__detail15_Hash_code_baseINSt7__cxx1112basic_stringIcSt11char_traitsIcESaIcEEESt4pairIKS6_St3setIiSt4lessIiESaIiEEENS_10_Select1stESt4hashIS6_ENS_18_Mod_range_hashingENS_20_Default_ranged_hashELb1EE12_M_hash_codeERS8_, symObjAddr: 0x1D8C, symBinAddr: 0x1000051BC, symSize: 0x28 }
  - { offsetInCU: 0x195EF, offset: 0x195EF, size: 0x8, addend: 0x0, symName: __ZNKSt10_HashtableINSt7__cxx1112basic_stringIcSt11char_traitsIcESaIcEEESt4pairIKS5_St3setIiSt4lessIiESaIiEEESaISD_ENSt8__detail10_Select1stESt8equal_toIS5_ESt4hashIS5_ENSF_18_Mod_range_hashingENSF_20_Default_ranged_hashENSF_20_Prime_rehash_policyENSF_17_Hashtable_traitsILb1ELb0ELb1EEEE15_M_bucket_indexEm, symObjAddr: 0x1DB4, symBinAddr: 0x1000051E4, symSize: 0x30 }
  - { offsetInCU: 0x19681, offset: 0x19681, size: 0x8, addend: 0x0, symName: __ZNSt10_HashtableINSt7__cxx1112basic_stringIcSt11char_traitsIcESaIcEEESt4pairIKS5_St3setIiSt4lessIiESaIiEEESaISD_ENSt8__detail10_Select1stESt8equal_toIS5_ESt4hashIS5_ENSF_18_Mod_range_hashingENSF_20_Default_ranged_hashENSF_20_Prime_rehash_policyENSF_17_Hashtable_traitsILb1ELb0ELb1EEEE21_M_deallocate_bucketsEPPNSF_15_Hash_node_baseEm, symObjAddr: 0x1D3C, symBinAddr: 0x10000516C, symSize: 0x50 }
  - { offsetInCU: 0x19689, offset: 0x19689, size: 0x8, addend: 0x0, symName: __ZNKSt8__detail15_Hash_code_baseINSt7__cxx1112basic_stringIcSt11char_traitsIcESaIcEEESt4pairIKS6_St3setIiSt4lessIiESaIiEEENS_10_Select1stESt4hashIS6_ENS_18_Mod_range_hashingENS_20_Default_ranged_hashELb1EE12_M_hash_codeERS8_, symObjAddr: 0x1D8C, symBinAddr: 0x1000051BC, symSize: 0x28 }
  - { offsetInCU: 0x196D8, offset: 0x196D8, size: 0x8, addend: 0x0, symName: __ZNSt8__detail16_Hashtable_allocISaINS_10_Hash_nodeISt4pairIKNSt7__cxx1112basic_stringIcSt11char_traitsIcESaIcEEESt3setIiSt4lessIiESaIiEEELb1EEEEE19_M_deallocate_nodesEPSG_, symObjAddr: 0x1CEC, symBinAddr: 0x10000511C, symSize: 0x50 }
  - { offsetInCU: 0x196E0, offset: 0x196E0, size: 0x8, addend: 0x0, symName: __ZNSt10_HashtableINSt7__cxx1112basic_stringIcSt11char_traitsIcESaIcEEESt4pairIKS5_St3setIiSt4lessIiESaIiEEESaISD_ENSt8__detail10_Select1stESt8equal_toIS5_ESt4hashIS5_ENSF_18_Mod_range_hashingENSF_20_Default_ranged_hashENSF_20_Prime_rehash_policyENSF_17_Hashtable_traitsILb1ELb0ELb1EEEE21_M_deallocate_bucketsEPPNSF_15_Hash_node_baseEm, symObjAddr: 0x1D3C, symBinAddr: 0x10000516C, symSize: 0x50 }
  - { offsetInCU: 0x19741, offset: 0x19741, size: 0x8, addend: 0x0, symName: __ZNKSt10_HashtableINSt7__cxx1112basic_stringIcSt11char_traitsIcESaIcEEESt4pairIKS5_St3setIiSt4lessIiESaIiEEESaISD_ENSt8__detail10_Select1stESt8equal_toIS5_ESt4hashIS5_ENSF_18_Mod_range_hashingENSF_20_Default_ranged_hashENSF_20_Prime_rehash_policyENSF_17_Hashtable_traitsILb1ELb0ELb1EEEE8_M_beginEv, symObjAddr: 0x1CD4, symBinAddr: 0x100005104, symSize: 0x18 }
  - { offsetInCU: 0x19749, offset: 0x19749, size: 0x8, addend: 0x0, symName: __ZNSt8__detail16_Hashtable_allocISaINS_10_Hash_nodeISt4pairIKNSt7__cxx1112basic_stringIcSt11char_traitsIcESaIcEEESt3setIiSt4lessIiESaIiEEELb1EEEEE19_M_deallocate_nodesEPSG_, symObjAddr: 0x1CEC, symBinAddr: 0x10000511C, symSize: 0x50 }
  - { offsetInCU: 0x197CE, offset: 0x197CE, size: 0x8, addend: 0x0, symName: __ZNSt6vectorINSt7__cxx1112basic_stringIcSt11char_traitsIcESaIcEEESaIS5_EE12emplace_backIJS5_EEERS5_DpOT_, symObjAddr: 0x1BE8, symBinAddr: 0x100005018, symSize: 0xEC }
  - { offsetInCU: 0x197D6, offset: 0x197D6, size: 0x8, addend: 0x0, symName: __ZNKSt10_HashtableINSt7__cxx1112basic_stringIcSt11char_traitsIcESaIcEEESt4pairIKS5_St3setIiSt4lessIiESaIiEEESaISD_ENSt8__detail10_Select1stESt8equal_toIS5_ESt4hashIS5_ENSF_18_Mod_range_hashingENSF_20_Default_ranged_hashENSF_20_Prime_rehash_policyENSF_17_Hashtable_traitsILb1ELb0ELb1EEEE8_M_beginEv, symObjAddr: 0x1CD4, symBinAddr: 0x100005104, symSize: 0x18 }
  - { offsetInCU: 0x19899, offset: 0x19899, size: 0x8, addend: 0x0, symName: __ZNKSt13_Rb_tree_nodeIiE9_M_valptrEv, symObjAddr: 0x1BC8, symBinAddr: 0x100004FF8, symSize: 0x20 }
  - { offsetInCU: 0x198A1, offset: 0x198A1, size: 0x8, addend: 0x0, symName: __ZNSt6vectorINSt7__cxx1112basic_stringIcSt11char_traitsIcESaIcEEESaIS5_EE12emplace_backIJS5_EEERS5_DpOT_, symObjAddr: 0x1BE8, symBinAddr: 0x100005018, symSize: 0xEC }
  - { offsetInCU: 0x198C8, offset: 0x198C8, size: 0x8, addend: 0x0, symName: __ZNKSt8_Rb_treeIiiSt9_IdentityIiESt4lessIiESaIiEE3endEv, symObjAddr: 0x1BA0, symBinAddr: 0x100004FD0, symSize: 0x28 }
  - { offsetInCU: 0x198D0, offset: 0x198D0, size: 0x8, addend: 0x0, symName: __ZNKSt13_Rb_tree_nodeIiE9_M_valptrEv, symObjAddr: 0x1BC8, symBinAddr: 0x100004FF8, symSize: 0x20 }
  - { offsetInCU: 0x19960, offset: 0x19960, size: 0x8, addend: 0x0, symName: __ZNSt23_Rb_tree_const_iteratorIiEC1ERKSt17_Rb_tree_iteratorIiE, symObjAddr: 0x1B78, symBinAddr: 0x100004FA8, symSize: 0x28 }
  - { offsetInCU: 0x19968, offset: 0x19968, size: 0x8, addend: 0x0, symName: __ZNKSt8_Rb_treeIiiSt9_IdentityIiESt4lessIiESaIiEE3endEv, symObjAddr: 0x1BA0, symBinAddr: 0x100004FD0, symSize: 0x28 }
  - { offsetInCU: 0x1995B, offset: 0x1995B, size: 0x8, addend: 0x0, symName: __ZNSt8_Rb_treeIiiSt9_IdentityIiESt4lessIiESaIiEE11upper_boundERKi, symObjAddr: 0x1B30, symBinAddr: 0x100004F60, symSize: 0x48 }
  - { offsetInCU: 0x19963, offset: 0x19963, size: 0x8, addend: 0x0, symName: __ZNSt23_Rb_tree_const_iteratorIiEC1ERKSt17_Rb_tree_iteratorIiE, symObjAddr: 0x1B78, symBinAddr: 0x100004FA8, symSize: 0x28 }
  - { offsetInCU: 0x1999E, offset: 0x1999E, size: 0x8, addend: 0x0, symName: __ZNKSt8_Rb_treeIiiSt9_IdentityIiESt4lessIiESaIiEE4sizeEv, symObjAddr: 0x1B18, symBinAddr: 0x100004F48, symSize: 0x18 }
  - { offsetInCU: 0x199A6, offset: 0x199A6, size: 0x8, addend: 0x0, symName: __ZNSt8_Rb_treeIiiSt9_IdentityIiESt4lessIiESaIiEE11upper_boundERKi, symObjAddr: 0x1B30, symBinAddr: 0x100004F60, symSize: 0x48 }
  - { offsetInCU: 0x199CD, offset: 0x199CD, size: 0x8, addend: 0x0, symName: __ZNSt8_Rb_treeIiiSt9_IdentityIiESt4lessIiESaIiEE16_M_insert_uniqueIiEESt4pairISt17_Rb_tree_iteratorIiEbEOT_, symObjAddr: 0x1A4C, symBinAddr: 0x100004E7C, symSize: 0xCC }
  - { offsetInCU: 0x199D5, offset: 0x199D5, size: 0x8, addend: 0x0, symName: __ZNKSt8_Rb_treeIiiSt9_IdentityIiESt4lessIiESaIiEE4sizeEv, symObjAddr: 0x1B18, symBinAddr: 0x100004F48, symSize: 0x18 }
  - { offsetInCU: 0x19A9C, offset: 0x19A9C, size: 0x8, addend: 0x0, symName: __ZSt4moveIRiEONSt16remove_referenceIT_E4typeEOS2_, symObjAddr: 0x1A38, symBinAddr: 0x100004E68, symSize: 0x14 }
  - { offsetInCU: 0x19AA4, offset: 0x19AA4, size: 0x8, addend: 0x0, symName: __ZNSt8_Rb_treeIiiSt9_IdentityIiESt4lessIiESaIiEE16_M_insert_uniqueIiEESt4pairISt17_Rb_tree_iteratorIiEbEOT_, symObjAddr: 0x1A4C, symBinAddr: 0x100004E7C, symSize: 0xCC }
  - { offsetInCU: 0x19B5B, offset: 0x19B5B, size: 0x8, addend: 0x0, symName: __ZNSt4pairISt23_Rb_tree_const_iteratorIiEbEC1IRSt17_Rb_tree_iteratorIiERbLb1EEEOT_OT0_, symObjAddr: 0x19E4, symBinAddr: 0x100004E14, symSize: 0x54 }
  - { offsetInCU: 0x19B63, offset: 0x19B63, size: 0x8, addend: 0x0, symName: __ZSt4moveIRiEONSt16remove_referenceIT_E4typeEOS2_, symObjAddr: 0x1A38, symBinAddr: 0x100004E68, symSize: 0x14 }
  - { offsetInCU: 0x19B64, offset: 0x19B64, size: 0x8, addend: 0x0, symName: __ZNSt8_Rb_treeIiiSt9_IdentityIiESt4lessIiESaIiEE16_M_insert_uniqueIRKiEESt4pairISt17_Rb_tree_iteratorIiEbEOT_, symObjAddr: 0x1918, symBinAddr: 0x100004D48, symSize: 0xCC }
  - { offsetInCU: 0x19B6C, offset: 0x19B6C, size: 0x8, addend: 0x0, symName: __ZNSt4pairISt23_Rb_tree_const_iteratorIiEbEC1IRSt17_Rb_tree_iteratorIiERbLb1EEEOT_OT0_, symObjAddr: 0x19E4, symBinAddr: 0x100004E14, symSize: 0x54 }
  - { offsetInCU: 0x19BF2, offset: 0x19BF2, size: 0x8, addend: 0x0, symName: __ZNSt8__detail9_Map_baseINSt7__cxx1112basic_stringIcSt11char_traitsIcESaIcEEESt4pairIKS6_St3setIiSt4lessIiESaIiEEESaISE_ENS_10_Select1stESt8equal_toIS6_ESt4hashIS6_ENS_18_Mod_range_hashingENS_20_Default_ranged_hashENS_20_Prime_rehash_policyENS_17_Hashtable_traitsILb1ELb0ELb1EEELb1EEixERS8_, symObjAddr: 0x1810, symBinAddr: 0x100004C40, symSize: 0x108 }
  - { offsetInCU: 0x19BFA, offset: 0x19BFA, size: 0x8, addend: 0x0, symName: __ZNSt8_Rb_treeIiiSt9_IdentityIiESt4lessIiESaIiEE16_M_insert_uniqueIRKiEESt4pairISt17_Rb_tree_iteratorIiEbEOT_, symObjAddr: 0x1918, symBinAddr: 0x100004D48, symSize: 0xCC }
  - { offsetInCU: 0x19CCC, offset: 0x19CCC, size: 0x8, addend: 0x0, symName: __ZNK9__gnu_cxx17__normal_iteratorIPNSt7__cxx1112basic_stringIcSt11char_traitsIcESaIcEEESt6vectorIS6_SaIS6_EEE4baseEv, symObjAddr: 0x17FC, symBinAddr: 0x100004C2C, symSize: 0x14 }
  - { offsetInCU: 0x19CD4, offset: 0x19CD4, size: 0x8, addend: 0x0, symName: __ZNSt8__detail9_Map_baseINSt7__cxx1112basic_stringIcSt11char_traitsIcESaIcEEESt4pairIKS6_St3setIiSt4lessIiESaIiEEESaISE_ENS_10_Select1stESt8equal_toIS6_ESt4hashIS6_ENS_18_Mod_range_hashingENS_20_Default_ranged_hashENS_20_Prime_rehash_policyENS_17_Hashtable_traitsILb1ELb0ELb1EEELb1EEixERS8_, symObjAddr: 0x1810, symBinAddr: 0x100004C40, symSize: 0x108 }
  - { offsetInCU: 0x19D9A, offset: 0x19D9A, size: 0x8, addend: 0x0, symName: __ZN9__gnu_cxx17__normal_iteratorIPNSt7__cxx1112basic_stringIcSt11char_traitsIcESaIcEEESt6vectorIS6_SaIS6_EEEC1ERKS7_, symObjAddr: 0x17D4, symBinAddr: 0x100004C04, symSize: 0x28 }
  - { offsetInCU: 0x19DA2, offset: 0x19DA2, size: 0x8, addend: 0x0, symName: __ZNK9__gnu_cxx17__normal_iteratorIPNSt7__cxx1112basic_stringIcSt11char_traitsIcESaIcEEESt6vectorIS6_SaIS6_EEE4baseEv, symObjAddr: 0x17FC, symBinAddr: 0x100004C2C, symSize: 0x14 }
  - { offsetInCU: 0x19D78, offset: 0x19D78, size: 0x8, addend: 0x0, symName: __ZNSt12_Vector_baseINSt7__cxx1112basic_stringIcSt11char_traitsIcESaIcEEESaIS5_EE13_M_deallocateEPS5_m, symObjAddr: 0x177C, symBinAddr: 0x100004BAC, symSize: 0x58 }
  - { offsetInCU: 0x19D80, offset: 0x19D80, size: 0x8, addend: 0x0, symName: __ZN9__gnu_cxx17__normal_iteratorIPNSt7__cxx1112basic_stringIcSt11char_traitsIcESaIcEEESt6vectorIS6_SaIS6_EEEC1ERKS7_, symObjAddr: 0x17D4, symBinAddr: 0x100004C04, symSize: 0x28 }
  - { offsetInCU: 0x19E85, offset: 0x19E85, size: 0x8, addend: 0x0, symName: __ZNSt15__new_allocatorINSt7__cxx1112basic_stringIcSt11char_traitsIcESaIcEEEED2Ev, symObjAddr: 0x1768, symBinAddr: 0x100004B98, symSize: 0x14 }
  - { offsetInCU: 0x19E8D, offset: 0x19E8D, size: 0x8, addend: 0x0, symName: __ZNSt12_Vector_baseINSt7__cxx1112basic_stringIcSt11char_traitsIcESaIcEEESaIS5_EE13_M_deallocateEPS5_m, symObjAddr: 0x177C, symBinAddr: 0x100004BAC, symSize: 0x58 }
  - { offsetInCU: 0x19EE3, offset: 0x19EE3, size: 0x8, addend: 0x0, symName: __ZNSt12_Vector_baseINSt7__cxx1112basic_stringIcSt11char_traitsIcESaIcEEESaIS5_EE17_Vector_impl_dataC2Ev, symObjAddr: 0x173C, symBinAddr: 0x100004B6C, symSize: 0x2C }
  - { offsetInCU: 0x19EEB, offset: 0x19EEB, size: 0x8, addend: 0x0, symName: __ZNSt15__new_allocatorINSt7__cxx1112basic_stringIcSt11char_traitsIcESaIcEEEED2Ev, symObjAddr: 0x1768, symBinAddr: 0x100004B98, symSize: 0x14 }
  - { offsetInCU: 0x19EC2, offset: 0x19EC2, size: 0x8, addend: 0x0, symName: __ZNSt10_HashtableINSt7__cxx1112basic_stringIcSt11char_traitsIcESaIcEEESt4pairIKS5_St3setIiSt4lessIiESaIiEEESaISD_ENSt8__detail10_Select1stESt8equal_toIS5_ESt4hashIS5_ENSF_18_Mod_range_hashingENSF_20_Default_ranged_hashENSF_20_Prime_rehash_policyENSF_17_Hashtable_traitsILb1ELb0ELb1EEEE21_M_deallocate_bucketsEv, symObjAddr: 0x1708, symBinAddr: 0x100004B38, symSize: 0x34 }
  - { offsetInCU: 0x19ECA, offset: 0x19ECA, size: 0x8, addend: 0x0, symName: __ZNSt12_Vector_baseINSt7__cxx1112basic_stringIcSt11char_traitsIcESaIcEEESaIS5_EE17_Vector_impl_dataC2Ev, symObjAddr: 0x173C, symBinAddr: 0x100004B6C, symSize: 0x2C }
  - { offsetInCU: 0x19EF1, offset: 0x19EF1, size: 0x8, addend: 0x0, symName: __ZNSt10_HashtableINSt7__cxx1112basic_stringIcSt11char_traitsIcESaIcEEESt4pairIKS5_St3setIiSt4lessIiESaIiEEESaISD_ENSt8__detail10_Select1stESt8equal_toIS5_ESt4hashIS5_ENSF_18_Mod_range_hashingENSF_20_Default_ranged_hashENSF_20_Prime_rehash_policyENSF_17_Hashtable_traitsILb1ELb0ELb1EEEE5clearEv, symObjAddr: 0x16A4, symBinAddr: 0x100004AD4, symSize: 0x64 }
  - { offsetInCU: 0x19EF9, offset: 0x19EF9, size: 0x8, addend: 0x0, symName: __ZNSt10_HashtableINSt7__cxx1112basic_stringIcSt11char_traitsIcESaIcEEESt4pairIKS5_St3setIiSt4lessIiESaIiEEESaISD_ENSt8__detail10_Select1stESt8equal_toIS5_ESt4hashIS5_ENSF_18_Mod_range_hashingENSF_20_Default_ranged_hashENSF_20_Prime_rehash_policyENSF_17_Hashtable_traitsILb1ELb0ELb1EEEE21_M_deallocate_bucketsEv, symObjAddr: 0x1708, symBinAddr: 0x100004B38, symSize: 0x34 }
  - { offsetInCU: 0x19FD9, offset: 0x19FD9, size: 0x8, addend: 0x0, symName: __ZNSt15__new_allocatorINSt8__detail10_Hash_nodeISt4pairIKNSt7__cxx1112basic_stringIcSt11char_traitsIcESaIcEEESt3setIiSt4lessIiESaIiEEELb1EEEED2Ev, symObjAddr: 0x1690, symBinAddr: 0x100004AC0, symSize: 0x14 }
  - { offsetInCU: 0x19FE1, offset: 0x19FE1, size: 0x8, addend: 0x0, symName: __ZNSt10_HashtableINSt7__cxx1112basic_stringIcSt11char_traitsIcESaIcEEESt4pairIKS5_St3setIiSt4lessIiESaIiEEESaISD_ENSt8__detail10_Select1stESt8equal_toIS5_ESt4hashIS5_ENSF_18_Mod_range_hashingENSF_20_Default_ranged_hashENSF_20_Prime_rehash_policyENSF_17_Hashtable_traitsILb1ELb0ELb1EEEE5clearEv, symObjAddr: 0x16A4, symBinAddr: 0x100004AD4, symSize: 0x64 }
  - { offsetInCU: 0x19FD3, offset: 0x19FD3, size: 0x8, addend: 0x0, symName: __ZSt7forwardIiEOT_RNSt16remove_referenceIS0_E4typeE, symObjAddr: 0x167C, symBinAddr: 0x100004AAC, symSize: 0x14 }
  - { offsetInCU: 0x19FDB, offset: 0x19FDB, size: 0x8, addend: 0x0, symName: __ZNSt15__new_allocatorINSt8__detail10_Hash_nodeISt4pairIKNSt7__cxx1112basic_stringIcSt11char_traitsIcESaIcEEESt3setIiSt4lessIiESaIiEEELb1EEEED2Ev, symObjAddr: 0x1690, symBinAddr: 0x100004AC0, symSize: 0x14 }
  - { offsetInCU: 0x1A028, offset: 0x1A028, size: 0x8, addend: 0x0, symName: __ZSt7forwardIbEOT_RNSt16remove_referenceIS0_E4typeE, symObjAddr: 0x1668, symBinAddr: 0x100004A98, symSize: 0x14 }
  - { offsetInCU: 0x1A030, offset: 0x1A030, size: 0x8, addend: 0x0, symName: __ZSt7forwardIiEOT_RNSt16remove_referenceIS0_E4typeE, symObjAddr: 0x167C, symBinAddr: 0x100004AAC, symSize: 0x14 }
  - { offsetInCU: 0x1A0C7, offset: 0x1A0C7, size: 0x8, addend: 0x0, symName: __ZSt4moveIRNSt7__cxx1112basic_stringIcSt11char_traitsIcESaIcEEEEONSt16remove_referenceIT_E4typeEOS8_, symObjAddr: 0x1654, symBinAddr: 0x100004A84, symSize: 0x14 }
  - { offsetInCU: 0x1A0CF, offset: 0x1A0CF, size: 0x8, addend: 0x0, symName: __ZSt7forwardIbEOT_RNSt16remove_referenceIS0_E4typeE, symObjAddr: 0x1668, symBinAddr: 0x100004A98, symSize: 0x14 }
  - { offsetInCU: 0x1A08A, offset: 0x1A08A, size: 0x8, addend: 0x0, symName: __ZNSt7__cxx1112basic_stringIcSt11char_traitsIcESaIcEE12_M_constructIPKcEEvT_S8_St20forward_iterator_tag, symObjAddr: 0x156C, symBinAddr: 0x10000499C, symSize: 0xE8 }
  - { offsetInCU: 0x1A092, offset: 0x1A092, size: 0x8, addend: 0x0, symName: __ZSt4moveIRNSt7__cxx1112basic_stringIcSt11char_traitsIcESaIcEEEEONSt16remove_referenceIT_E4typeEOS8_, symObjAddr: 0x1654, symBinAddr: 0x100004A84, symSize: 0x14 }
  - { offsetInCU: 0x1A243, offset: 0x1A243, size: 0x8, addend: 0x0, symName: __ZZNSt7__cxx1112basic_stringIcSt11char_traitsIcESaIcEE12_M_constructIPKcEEvT_S8_St20forward_iterator_tagEN6_GuardC1EPS4_, symObjAddr: 0x1514, symBinAddr: 0x100004944, symSize: 0x24 }
  - { offsetInCU: 0x1A24B, offset: 0x1A24B, size: 0x8, addend: 0x0, symName: __ZZNSt7__cxx1112basic_stringIcSt11char_traitsIcESaIcEE12_M_constructIPKcEEvT_S8_St20forward_iterator_tagEN6_GuardD1Ev, symObjAddr: 0x1538, symBinAddr: 0x100004968, symSize: 0x34 }
  - { offsetInCU: 0x1A27B, offset: 0x1A27B, size: 0x8, addend: 0x0, symName: __ZZNSt7__cxx1112basic_stringIcSt11char_traitsIcESaIcEE12_M_constructIPKcEEvT_S8_St20forward_iterator_tagEN6_GuardD1Ev, symObjAddr: 0x1538, symBinAddr: 0x100004968, symSize: 0x34 }
  - { offsetInCU: 0x1A283, offset: 0x1A283, size: 0x8, addend: 0x0, symName: __ZNSt7__cxx1112basic_stringIcSt11char_traitsIcESaIcEE12_M_constructIPKcEEvT_S8_St20forward_iterator_tag, symObjAddr: 0x156C, symBinAddr: 0x10000499C, symSize: 0xE8 }
  - { offsetInCU: 0x1A346, offset: 0x1A346, size: 0x8, addend: 0x0, symName: __ZNSt15__new_allocatorIcED2Ev, symObjAddr: 0x1500, symBinAddr: 0x100004930, symSize: 0x14 }
  - { offsetInCU: 0x1A34E, offset: 0x1A34E, size: 0x8, addend: 0x0, symName: __ZZNSt7__cxx1112basic_stringIcSt11char_traitsIcESaIcEE12_M_constructIPKcEEvT_S8_St20forward_iterator_tagEN6_GuardC1EPS4_, symObjAddr: 0x1514, symBinAddr: 0x100004944, symSize: 0x24 }
  - { offsetInCU: 0x1A36F, offset: 0x1A36F, size: 0x8, addend: 0x0, symName: __ZN9__gnu_cxx11char_traitsIcE2eqERKcS3_, symObjAddr: 0x14D0, symBinAddr: 0x100004900, symSize: 0x30 }
  - { offsetInCU: 0x1A377, offset: 0x1A377, size: 0x8, addend: 0x0, symName: __ZNSt15__new_allocatorIcED2Ev, symObjAddr: 0x1500, symBinAddr: 0x100004930, symSize: 0x14 }
  - { offsetInCU: 0x1A3B3, offset: 0x1A3B3, size: 0x8, addend: 0x0, symName: __ZNSt6vectorINSt7__cxx1112basic_stringIcSt11char_traitsIcESaIcEEESaIS5_EE9push_backEOS5_, symObjAddr: 0x14A0, symBinAddr: 0x1000048D0, symSize: 0x30 }
  - { offsetInCU: 0x1A3BB, offset: 0x1A3BB, size: 0x8, addend: 0x0, symName: __ZN9__gnu_cxx11char_traitsIcE2eqERKcS3_, symObjAddr: 0x14D0, symBinAddr: 0x100004900, symSize: 0x30 }
  - { offsetInCU: 0x1A48B, offset: 0x1A48B, size: 0x8, addend: 0x0, symName: __ZNSt7__cxx1112basic_stringIcSt11char_traitsIcESaIcEEC1IS3_EEPKcRKS3_, symObjAddr: 0x1404, symBinAddr: 0x100004834, symSize: 0x9C }
  - { offsetInCU: 0x1A493, offset: 0x1A493, size: 0x8, addend: 0x0, symName: __ZNSt6vectorINSt7__cxx1112basic_stringIcSt11char_traitsIcESaIcEEESaIS5_EE9push_backEOS5_, symObjAddr: 0x14A0, symBinAddr: 0x1000048D0, symSize: 0x30 }
  - { offsetInCU: 0x1A4EB, offset: 0x1A4EB, size: 0x8, addend: 0x0, symName: __ZSt3minIiERKT_S2_S2_, symObjAddr: 0x13CC, symBinAddr: 0x1000047FC, symSize: 0x38 }
  - { offsetInCU: 0x1A4F3, offset: 0x1A4F3, size: 0x8, addend: 0x0, symName: __ZNSt7__cxx1112basic_stringIcSt11char_traitsIcESaIcEEC1IS3_EEPKcRKS3_, symObjAddr: 0x1404, symBinAddr: 0x100004834, symSize: 0x9C }
  - { offsetInCU: 0x1A525, offset: 0x1A525, size: 0x8, addend: 0x0, symName: __ZNKSt23_Rb_tree_const_iteratorIiEdeEv, symObjAddr: 0x13AC, symBinAddr: 0x1000047DC, symSize: 0x20 }
  - { offsetInCU: 0x1A52D, offset: 0x1A52D, size: 0x8, addend: 0x0, symName: __ZSt3minIiERKT_S2_S2_, symObjAddr: 0x13CC, symBinAddr: 0x1000047FC, symSize: 0x38 }
  - { offsetInCU: 0x1A58E, offset: 0x1A58E, size: 0x8, addend: 0x0, symName: __ZStneRKSt23_Rb_tree_const_iteratorIiES2_, symObjAddr: 0x137C, symBinAddr: 0x1000047AC, symSize: 0x30 }
  - { offsetInCU: 0x1A596, offset: 0x1A596, size: 0x8, addend: 0x0, symName: __ZNKSt23_Rb_tree_const_iteratorIiEdeEv, symObjAddr: 0x13AC, symBinAddr: 0x1000047DC, symSize: 0x20 }
  - { offsetInCU: 0x1A5B1, offset: 0x1A5B1, size: 0x8, addend: 0x0, symName: __ZNKSt3setIiSt4lessIiESaIiEE3endEv, symObjAddr: 0x1360, symBinAddr: 0x100004790, symSize: 0x1C }
  - { offsetInCU: 0x1A5B9, offset: 0x1A5B9, size: 0x8, addend: 0x0, symName: __ZStneRKSt23_Rb_tree_const_iteratorIiES2_, symObjAddr: 0x137C, symBinAddr: 0x1000047AC, symSize: 0x30 }
  - { offsetInCU: 0x1A5E0, offset: 0x1A5E0, size: 0x8, addend: 0x0, symName: __ZNSt3setIiSt4lessIiESaIiEE11upper_boundERKi, symObjAddr: 0x1328, symBinAddr: 0x100004758, symSize: 0x38 }
  - { offsetInCU: 0x1A5E8, offset: 0x1A5E8, size: 0x8, addend: 0x0, symName: __ZNKSt3setIiSt4lessIiESaIiEE3endEv, symObjAddr: 0x1360, symBinAddr: 0x100004790, symSize: 0x1C }
  - { offsetInCU: 0x1A623, offset: 0x1A623, size: 0x8, addend: 0x0, symName: __ZNKSt3setIiSt4lessIiESaIiEE4sizeEv, symObjAddr: 0x130C, symBinAddr: 0x10000473C, symSize: 0x1C }
  - { offsetInCU: 0x1A62B, offset: 0x1A62B, size: 0x8, addend: 0x0, symName: __ZNSt3setIiSt4lessIiESaIiEE11upper_boundERKi, symObjAddr: 0x1328, symBinAddr: 0x100004758, symSize: 0x38 }
  - { offsetInCU: 0x1A6F9, offset: 0x1A6F9, size: 0x8, addend: 0x0, symName: __ZSt4swapIiENSt9enable_ifIXsrSt6__and_IJSt6__not_ISt15__is_tuple_likeIT_EESt21is_move_constructibleIS4_ESt18is_move_assignableIS4_EEE5valueEvE4typeERS4_SE_, symObjAddr: 0x12B8, symBinAddr: 0x1000046E8, symSize: 0x54 }
  - { offsetInCU: 0x1A701, offset: 0x1A701, size: 0x8, addend: 0x0, symName: __ZNKSt3setIiSt4lessIiESaIiEE4sizeEv, symObjAddr: 0x130C, symBinAddr: 0x10000473C, symSize: 0x1C }
  - { offsetInCU: 0x1A6BA, offset: 0x1A6BA, size: 0x8, addend: 0x0, symName: __ZNSt3setIiSt4lessIiESaIiEE6insertEOi, symObjAddr: 0x1264, symBinAddr: 0x100004694, symSize: 0x54 }
  - { offsetInCU: 0x1A6C2, offset: 0x1A6C2, size: 0x8, addend: 0x0, symName: __ZSt4swapIiENSt9enable_ifIXsrSt6__and_IJSt6__not_ISt15__is_tuple_likeIT_EESt21is_move_constructibleIS4_ESt18is_move_assignableIS4_EEE5valueEvE4typeERS4_SE_, symObjAddr: 0x12B8, symBinAddr: 0x1000046E8, symSize: 0x54 }
  - { offsetInCU: 0x1A711, offset: 0x1A711, size: 0x8, addend: 0x0, symName: __ZNSt3setIiSt4lessIiESaIiEE6insertERKi, symObjAddr: 0x1224, symBinAddr: 0x100004654, symSize: 0x40 }
  - { offsetInCU: 0x1A719, offset: 0x1A719, size: 0x8, addend: 0x0, symName: __ZNSt3setIiSt4lessIiESaIiEE6insertEOi, symObjAddr: 0x1264, symBinAddr: 0x100004694, symSize: 0x54 }
  - { offsetInCU: 0x1A768, offset: 0x1A768, size: 0x8, addend: 0x0, symName: __ZNSt13unordered_mapINSt7__cxx1112basic_stringIcSt11char_traitsIcESaIcEEESt3setIiSt4lessIiESaIiEESt4hashIS5_ESt8equal_toIS5_ESaISt4pairIKS5_SA_EEEixERSG_, symObjAddr: 0x1200, symBinAddr: 0x100004630, symSize: 0x24 }
  - { offsetInCU: 0x1A770, offset: 0x1A770, size: 0x8, addend: 0x0, symName: __ZNSt3setIiSt4lessIiESaIiEE6insertERKi, symObjAddr: 0x1224, symBinAddr: 0x100004654, symSize: 0x40 }
  - { offsetInCU: 0x1A7AB, offset: 0x1A7AB, size: 0x8, addend: 0x0, symName: __ZNSt13unordered_mapINSt7__cxx1112basic_stringIcSt11char_traitsIcESaIcEEESt3setIiSt4lessIiESaIiEESt4hashIS5_ESt8equal_toIS5_ESaISt4pairIKS5_SA_EEE5clearEv, symObjAddr: 0x11E0, symBinAddr: 0x100004610, symSize: 0x20 }
  - { offsetInCU: 0x1A7B3, offset: 0x1A7B3, size: 0x8, addend: 0x0, symName: __ZNSt13unordered_mapINSt7__cxx1112basic_stringIcSt11char_traitsIcESaIcEEESt3setIiSt4lessIiESaIiEESt4hashIS5_ESt8equal_toIS5_ESaISt4pairIKS5_SA_EEEixERSG_, symObjAddr: 0x1200, symBinAddr: 0x100004630, symSize: 0x24 }
  - { offsetInCU: 0x1A7DA, offset: 0x1A7DA, size: 0x8, addend: 0x0, symName: __ZNK9__gnu_cxx17__normal_iteratorIPNSt7__cxx1112basic_stringIcSt11char_traitsIcESaIcEEESt6vectorIS6_SaIS6_EEEdeEv, symObjAddr: 0x11C8, symBinAddr: 0x1000045F8, symSize: 0x18 }
  - { offsetInCU: 0x1A7E2, offset: 0x1A7E2, size: 0x8, addend: 0x0, symName: __ZNSt13unordered_mapINSt7__cxx1112basic_stringIcSt11char_traitsIcESaIcEEESt3setIiSt4lessIiESaIiEESt4hashIS5_ESt8equal_toIS5_ESaISt4pairIKS5_SA_EEE5clearEv, symObjAddr: 0x11E0, symBinAddr: 0x100004610, symSize: 0x20 }
  - { offsetInCU: 0x1A809, offset: 0x1A809, size: 0x8, addend: 0x0, symName: __ZN9__gnu_cxx17__normal_iteratorIPNSt7__cxx1112basic_stringIcSt11char_traitsIcESaIcEEESt6vectorIS6_SaIS6_EEEppEv, symObjAddr: 0x11A0, symBinAddr: 0x1000045D0, symSize: 0x28 }
  - { offsetInCU: 0x1A811, offset: 0x1A811, size: 0x8, addend: 0x0, symName: __ZNK9__gnu_cxx17__normal_iteratorIPNSt7__cxx1112basic_stringIcSt11char_traitsIcESaIcEEESt6vectorIS6_SaIS6_EEEdeEv, symObjAddr: 0x11C8, symBinAddr: 0x1000045F8, symSize: 0x18 }
  - { offsetInCU: 0x1A91D, offset: 0x1A91D, size: 0x8, addend: 0x0, symName: __ZN9__gnu_cxxneIPNSt7__cxx1112basic_stringIcSt11char_traitsIcESaIcEEESt6vectorIS6_SaIS6_EEEEbRKNS_17__normal_iteratorIT_T0_EESG_, symObjAddr: 0x115C, symBinAddr: 0x10000458C, symSize: 0x44 }
  - { offsetInCU: 0x1A925, offset: 0x1A925, size: 0x8, addend: 0x0, symName: __ZN9__gnu_cxx17__normal_iteratorIPNSt7__cxx1112basic_stringIcSt11char_traitsIcESaIcEEESt6vectorIS6_SaIS6_EEEppEv, symObjAddr: 0x11A0, symBinAddr: 0x1000045D0, symSize: 0x28 }
  - { offsetInCU: 0x1A8A5, offset: 0x1A8A5, size: 0x8, addend: 0x0, symName: __ZNSt6vectorINSt7__cxx1112basic_stringIcSt11char_traitsIcESaIcEEESaIS5_EE3endEv, symObjAddr: 0x1134, symBinAddr: 0x100004564, symSize: 0x28 }
  - { offsetInCU: 0x1A8AD, offset: 0x1A8AD, size: 0x8, addend: 0x0, symName: __ZN9__gnu_cxxneIPNSt7__cxx1112basic_stringIcSt11char_traitsIcESaIcEEESt6vectorIS6_SaIS6_EEEEbRKNS_17__normal_iteratorIT_T0_EESG_, symObjAddr: 0x115C, symBinAddr: 0x10000458C, symSize: 0x44 }
  - { offsetInCU: 0x1A8D4, offset: 0x1A8D4, size: 0x8, addend: 0x0, symName: __ZNSt6vectorINSt7__cxx1112basic_stringIcSt11char_traitsIcESaIcEEESaIS5_EE5beginEv, symObjAddr: 0x1110, symBinAddr: 0x100004540, symSize: 0x24 }
  - { offsetInCU: 0x1A8DC, offset: 0x1A8DC, size: 0x8, addend: 0x0, symName: __ZNSt6vectorINSt7__cxx1112basic_stringIcSt11char_traitsIcESaIcEEESaIS5_EE3endEv, symObjAddr: 0x1134, symBinAddr: 0x100004564, symSize: 0x28 }
  - { offsetInCU: 0x1A97F, offset: 0x1A97F, size: 0x8, addend: 0x0, symName: __ZNSt12_Vector_baseINSt7__cxx1112basic_stringIcSt11char_traitsIcESaIcEEESaIS5_EED2Ev, symObjAddr: 0x10C0, symBinAddr: 0x1000044F0, symSize: 0x50 }
  - { offsetInCU: 0x1A987, offset: 0x1A987, size: 0x8, addend: 0x0, symName: __ZNSt6vectorINSt7__cxx1112basic_stringIcSt11char_traitsIcESaIcEEESaIS5_EE5beginEv, symObjAddr: 0x1110, symBinAddr: 0x100004540, symSize: 0x24 }
  - { offsetInCU: 0x1A9FB, offset: 0x1A9FB, size: 0x8, addend: 0x0, symName: __ZNSt12_Vector_baseINSt7__cxx1112basic_stringIcSt11char_traitsIcESaIcEEESaIS5_EE12_Vector_implC1Ev, symObjAddr: 0x1088, symBinAddr: 0x1000044B8, symSize: 0x38 }
  - { offsetInCU: 0x1AA03, offset: 0x1AA03, size: 0x8, addend: 0x0, symName: __ZNSt12_Vector_baseINSt7__cxx1112basic_stringIcSt11char_traitsIcESaIcEEESaIS5_EED2Ev, symObjAddr: 0x10C0, symBinAddr: 0x1000044F0, symSize: 0x50 }
  - { offsetInCU: 0x1AB5B, offset: 0x1AB5B, size: 0x8, addend: 0x0, symName: __ZNSt10_HashtableINSt7__cxx1112basic_stringIcSt11char_traitsIcESaIcEEESt4pairIKS5_St3setIiSt4lessIiESaIiEEESaISD_ENSt8__detail10_Select1stESt8equal_toIS5_ESt4hashIS5_ENSF_18_Mod_range_hashingENSF_20_Default_ranged_hashENSF_20_Prime_rehash_policyENSF_17_Hashtable_traitsILb1ELb0ELb1EEEED1Ev, symObjAddr: 0x1058, symBinAddr: 0x100004488, symSize: 0x30 }
  - { offsetInCU: 0x1AB63, offset: 0x1AB63, size: 0x8, addend: 0x0, symName: __ZNSt12_Vector_baseINSt7__cxx1112basic_stringIcSt11char_traitsIcESaIcEEESaIS5_EE12_Vector_implC1Ev, symObjAddr: 0x1088, symBinAddr: 0x1000044B8, symSize: 0x38 }
  - { offsetInCU: 0x1AB4B, offset: 0x1AB4B, size: 0x8, addend: 0x0, symName: __ZNSt8__detail21_Hashtable_ebo_helperILi0ESaINS_10_Hash_nodeISt4pairIKNSt7__cxx1112basic_stringIcSt11char_traitsIcESaIcEEESt3setIiSt4lessIiESaIiEEELb1EEEELb1EEC2Ev, symObjAddr: 0x102C, symBinAddr: 0x10000445C, symSize: 0x2C }
  - { offsetInCU: 0x1AB53, offset: 0x1AB53, size: 0x8, addend: 0x0, symName: __ZNSt10_HashtableINSt7__cxx1112basic_stringIcSt11char_traitsIcESaIcEEESt4pairIKS5_St3setIiSt4lessIiESaIiEEESaISD_ENSt8__detail10_Select1stESt8equal_toIS5_ESt4hashIS5_ENSF_18_Mod_range_hashingENSF_20_Default_ranged_hashENSF_20_Prime_rehash_policyENSF_17_Hashtable_traitsILb1ELb0ELb1EEEED1Ev, symObjAddr: 0x1058, symBinAddr: 0x100004488, symSize: 0x30 }
  - { offsetInCU: 0x1ABAF, offset: 0x1ABAF, size: 0x8, addend: 0x0, symName: __ZNSt8__detail21_Hashtable_ebo_helperILi0ESt8equal_toINSt7__cxx1112basic_stringIcSt11char_traitsIcESaIcEEEELb1EEC2Ev, symObjAddr: 0x1018, symBinAddr: 0x100004448, symSize: 0x14 }
  - { offsetInCU: 0x1ABB7, offset: 0x1ABB7, size: 0x8, addend: 0x0, symName: __ZNSt8__detail21_Hashtable_ebo_helperILi0ESaINS_10_Hash_nodeISt4pairIKNSt7__cxx1112basic_stringIcSt11char_traitsIcESaIcEEESt3setIiSt4lessIiESaIiEEELb1EEEELb1EEC2Ev, symObjAddr: 0x102C, symBinAddr: 0x10000445C, symSize: 0x2C }
  - { offsetInCU: 0x1ABF2, offset: 0x1ABF2, size: 0x8, addend: 0x0, symName: __ZNSt8__detail21_Hashtable_ebo_helperILi1ESt4hashINSt7__cxx1112basic_stringIcSt11char_traitsIcESaIcEEEELb1EEC2Ev, symObjAddr: 0x1004, symBinAddr: 0x100004434, symSize: 0x14 }
  - { offsetInCU: 0x1ABFA, offset: 0x1ABFA, size: 0x8, addend: 0x0, symName: __ZNSt8__detail21_Hashtable_ebo_helperILi0ESt8equal_toINSt7__cxx1112basic_stringIcSt11char_traitsIcESaIcEEEELb1EEC2Ev, symObjAddr: 0x1018, symBinAddr: 0x100004448, symSize: 0x14 }
  - { offsetInCU: 0x1ABE1, offset: 0x1ABE1, size: 0x8, addend: 0x0, symName: __ZSt3maxImERKT_S2_S2_, symObjAddr: 0xFCC, symBinAddr: 0x1000043FC, symSize: 0x38 }
  - { offsetInCU: 0x1ABE9, offset: 0x1ABE9, size: 0x8, addend: 0x0, symName: __ZNSt8__detail21_Hashtable_ebo_helperILi1ESt4hashINSt7__cxx1112basic_stringIcSt11char_traitsIcESaIcEEEELb1EEC2Ev, symObjAddr: 0x1004, symBinAddr: 0x100004434, symSize: 0x14 }
  - { offsetInCU: 0x1AC81, offset: 0x1AC81, size: 0x8, addend: 0x0, symName: __ZNSt7__cxx1112basic_stringIcSt11char_traitsIcESaIcEE12_Alloc_hiderD1Ev, symObjAddr: 0xFA0, symBinAddr: 0x1000043D0, symSize: 0x2C }
  - { offsetInCU: 0x1AC89, offset: 0x1AC89, size: 0x8, addend: 0x0, symName: __ZSt3maxImERKT_S2_S2_, symObjAddr: 0xFCC, symBinAddr: 0x1000043FC, symSize: 0x38 }
  - { offsetInCU: 0x1ACCD, offset: 0x1ACCD, size: 0x8, addend: 0x0, symName: __ZN9__gnu_cxx11char_traitsIcE6lengthEPKc, symObjAddr: 0xF44, symBinAddr: 0x100004374, symSize: 0x5C }
  - { offsetInCU: 0x1ACD5, offset: 0x1ACD5, size: 0x8, addend: 0x0, symName: __ZNSt7__cxx1112basic_stringIcSt11char_traitsIcESaIcEE12_Alloc_hiderD1Ev, symObjAddr: 0xFA0, symBinAddr: 0x1000043D0, symSize: 0x2C }
  - { offsetInCU: 0x1AD1B, offset: 0x1AD1B, size: 0x8, addend: 0x0, symName: _main, symObjAddr: 0xB90, symBinAddr: 0x100003FC0, symSize: 0x3B4 }
  - { offsetInCU: 0x1AD23, offset: 0x1AD23, size: 0x8, addend: 0x0, symName: __ZN9__gnu_cxx11char_traitsIcE6lengthEPKc, symObjAddr: 0xF44, symBinAddr: 0x100004374, symSize: 0x5C }
  - { offsetInCU: 0x1B0C9, offset: 0x1B0C9, size: 0x8, addend: 0x0, symName: __Z5solvev, symObjAddr: 0x5C0, symBinAddr: 0x1000039F0, symSize: 0x5D0 }
  - { offsetInCU: 0x1B0D1, offset: 0x1B0D1, size: 0x8, addend: 0x0, symName: _main, symObjAddr: 0xB90, symBinAddr: 0x100003FC0, symSize: 0x3B4 }
  - { offsetInCU: 0x1B2F7, offset: 0x1B2F7, size: 0x8, addend: 0x0, symName: __Z10shareColorRNSt7__cxx1112basic_stringIcSt11char_traitsIcESaIcEEES5_, symObjAddr: 0x4F4, symBinAddr: 0x100003924, symSize: 0xCC }
  - { offsetInCU: 0x1B2FF, offset: 0x1B2FF, size: 0x8, addend: 0x0, symName: __Z5solvev, symObjAddr: 0x5C0, symBinAddr: 0x1000039F0, symSize: 0x5D0 }
  - { offsetInCU: 0x1B362, offset: 0x1B362, size: 0x8, addend: 0x0, symName: __ZNSt6vectorINSt7__cxx1112basic_stringIcSt11char_traitsIcESaIcEEESaIS5_EEC1Ev, symObjAddr: 0x4D4, symBinAddr: 0x100003904, symSize: 0x20 }
  - { offsetInCU: 0x1B36A, offset: 0x1B36A, size: 0x8, addend: 0x0, symName: __Z10shareColorRNSt7__cxx1112basic_stringIcSt11char_traitsIcESaIcEEES5_, symObjAddr: 0x4F4, symBinAddr: 0x100003924, symSize: 0xCC }
  - { offsetInCU: 0x1B3B0, offset: 0x1B3B0, size: 0x8, addend: 0x0, symName: __ZNSt12_Vector_baseINSt7__cxx1112basic_stringIcSt11char_traitsIcESaIcEEESaIS5_EEC2Ev, symObjAddr: 0x4B4, symBinAddr: 0x1000038E4, symSize: 0x20 }
  - { offsetInCU: 0x1B3B8, offset: 0x1B3B8, size: 0x8, addend: 0x0, symName: __ZNSt6vectorINSt7__cxx1112basic_stringIcSt11char_traitsIcESaIcEEESaIS5_EEC1Ev, symObjAddr: 0x4D4, symBinAddr: 0x100003904, symSize: 0x20 }
  - { offsetInCU: 0x1B416, offset: 0x1B416, size: 0x8, addend: 0x0, symName: __ZNSt12_Vector_baseINSt7__cxx1112basic_stringIcSt11char_traitsIcESaIcEEESaIS5_EE12_Vector_implD1Ev, symObjAddr: 0x488, symBinAddr: 0x1000038B8, symSize: 0x2C }
  - { offsetInCU: 0x1B41E, offset: 0x1B41E, size: 0x8, addend: 0x0, symName: __ZNSt12_Vector_baseINSt7__cxx1112basic_stringIcSt11char_traitsIcESaIcEEESaIS5_EEC2Ev, symObjAddr: 0x4B4, symBinAddr: 0x1000038E4, symSize: 0x20 }
  - { offsetInCU: 0x1B4B7, offset: 0x1B4B7, size: 0x8, addend: 0x0, symName: __ZNSt13unordered_mapINSt7__cxx1112basic_stringIcSt11char_traitsIcESaIcEEESt3setIiSt4lessIiESaIiEESt4hashIS5_ESt8equal_toIS5_ESaISt4pairIKS5_SA_EEEC1Ev, symObjAddr: 0x468, symBinAddr: 0x100003898, symSize: 0x20 }
  - { offsetInCU: 0x1B4BF, offset: 0x1B4BF, size: 0x8, addend: 0x0, symName: __ZNSt12_Vector_baseINSt7__cxx1112basic_stringIcSt11char_traitsIcESaIcEEESaIS5_EE12_Vector_implD1Ev, symObjAddr: 0x488, symBinAddr: 0x1000038B8, symSize: 0x2C }
  - { offsetInCU: 0x1B589, offset: 0x1B589, size: 0x8, addend: 0x0, symName: __ZNSt10_HashtableINSt7__cxx1112basic_stringIcSt11char_traitsIcESaIcEEESt4pairIKS5_St3setIiSt4lessIiESaIiEEESaISD_ENSt8__detail10_Select1stESt8equal_toIS5_ESt4hashIS5_ENSF_18_Mod_range_hashingENSF_20_Default_ranged_hashENSF_20_Prime_rehash_policyENSF_17_Hashtable_traitsILb1ELb0ELb1EEEEC1Ev, symObjAddr: 0x3F8, symBinAddr: 0x100003828, symSize: 0x70 }
  - { offsetInCU: 0x1B591, offset: 0x1B591, size: 0x8, addend: 0x0, symName: __ZNSt13unordered_mapINSt7__cxx1112basic_stringIcSt11char_traitsIcESaIcEEESt3setIiSt4lessIiESaIiEESt4hashIS5_ESt8equal_toIS5_ESaISt4pairIKS5_SA_EEEC1Ev, symObjAddr: 0x468, symBinAddr: 0x100003898, symSize: 0x20 }
  - { offsetInCU: 0x1B558, offset: 0x1B558, size: 0x8, addend: 0x0, symName: __ZNSt8__detail16_Hashtable_allocISaINS_10_Hash_nodeISt4pairIKNSt7__cxx1112basic_stringIcSt11char_traitsIcESaIcEEESt3setIiSt4lessIiESaIiEEELb1EEEEED2Ev, symObjAddr: 0x3D8, symBinAddr: 0x100003808, symSize: 0x20 }
  - { offsetInCU: 0x1B560, offset: 0x1B560, size: 0x8, addend: 0x0, symName: __ZNSt10_HashtableINSt7__cxx1112basic_stringIcSt11char_traitsIcESaIcEEESt4pairIKS5_St3setIiSt4lessIiESaIiEEESaISD_ENSt8__detail10_Select1stESt8equal_toIS5_ESt4hashIS5_ENSF_18_Mod_range_hashingENSF_20_Default_ranged_hashENSF_20_Prime_rehash_policyENSF_17_Hashtable_traitsILb1ELb0ELb1EEEEC1Ev, symObjAddr: 0x3F8, symBinAddr: 0x100003828, symSize: 0x70 }
  - { offsetInCU: 0x1B59F, offset: 0x1B59F, size: 0x8, addend: 0x0, symName: __ZNSt8__detail16_Hashtable_allocISaINS_10_Hash_nodeISt4pairIKNSt7__cxx1112basic_stringIcSt11char_traitsIcESaIcEEESt3setIiSt4lessIiESaIiEEELb1EEEEEC2Ev, symObjAddr: 0x3B8, symBinAddr: 0x1000037E8, symSize: 0x20 }
  - { offsetInCU: 0x1B5A7, offset: 0x1B5A7, size: 0x8, addend: 0x0, symName: __ZNSt8__detail16_Hashtable_allocISaINS_10_Hash_nodeISt4pairIKNSt7__cxx1112basic_stringIcSt11char_traitsIcESaIcEEESt3setIiSt4lessIiESaIiEEELb1EEEEED2Ev, symObjAddr: 0x3D8, symBinAddr: 0x100003808, symSize: 0x20 }
  - { offsetInCU: 0x1B606, offset: 0x1B606, size: 0x8, addend: 0x0, symName: __ZNSt8__detail21_Hashtable_ebo_helperILi0ESaINS_10_Hash_nodeISt4pairIKNSt7__cxx1112basic_stringIcSt11char_traitsIcESaIcEEESt3setIiSt4lessIiESaIiEEELb1EEEELb1EED2Ev, symObjAddr: 0x38C, symBinAddr: 0x1000037BC, symSize: 0x2C }
  - { offsetInCU: 0x1B60E, offset: 0x1B60E, size: 0x8, addend: 0x0, symName: __ZNSt8__detail16_Hashtable_allocISaINS_10_Hash_nodeISt4pairIKNSt7__cxx1112basic_stringIcSt11char_traitsIcESaIcEEESt3setIiSt4lessIiESaIiEEELb1EEEEEC2Ev, symObjAddr: 0x3B8, symBinAddr: 0x1000037E8, symSize: 0x20 }
  - { offsetInCU: 0x1B6D1, offset: 0x1B6D1, size: 0x8, addend: 0x0, symName: __ZNSt8__detail15_Hashtable_baseINSt7__cxx1112basic_stringIcSt11char_traitsIcESaIcEEESt4pairIKS6_St3setIiSt4lessIiESaIiEEENS_10_Select1stESt8equal_toIS6_ESt4hashIS6_ENS_18_Mod_range_hashingENS_20_Default_ranged_hashENS_17_Hashtable_traitsILb1ELb0ELb1EEEEC2Ev, symObjAddr: 0x364, symBinAddr: 0x100003794, symSize: 0x28 }
  - { offsetInCU: 0x1B6D9, offset: 0x1B6D9, size: 0x8, addend: 0x0, symName: __ZNSt8__detail21_Hashtable_ebo_helperILi0ESaINS_10_Hash_nodeISt4pairIKNSt7__cxx1112basic_stringIcSt11char_traitsIcESaIcEEESt3setIiSt4lessIiESaIiEEELb1EEEELb1EED2Ev, symObjAddr: 0x38C, symBinAddr: 0x1000037BC, symSize: 0x2C }
  - { offsetInCU: 0x1B6E7, offset: 0x1B6E7, size: 0x8, addend: 0x0, symName: __ZNSt8__detail15_Hash_code_baseINSt7__cxx1112basic_stringIcSt11char_traitsIcESaIcEEESt4pairIKS6_St3setIiSt4lessIiESaIiEEENS_10_Select1stESt4hashIS6_ENS_18_Mod_range_hashingENS_20_Default_ranged_hashELb1EEC2Ev, symObjAddr: 0x344, symBinAddr: 0x100003774, symSize: 0x20 }
  - { offsetInCU: 0x1B6EF, offset: 0x1B6EF, size: 0x8, addend: 0x0, symName: __ZNSt8__detail15_Hashtable_baseINSt7__cxx1112basic_stringIcSt11char_traitsIcESaIcEEESt4pairIKS6_St3setIiSt4lessIiESaIiEEENS_10_Select1stESt8equal_toIS6_ESt4hashIS6_ENS_18_Mod_range_hashingENS_20_Default_ranged_hashENS_17_Hashtable_traitsILb1ELb0ELb1EEEEC2Ev, symObjAddr: 0x364, symBinAddr: 0x100003794, symSize: 0x28 }
  - { offsetInCU: 0x1B675, offset: 0x1B675, size: 0x8, addend: 0x0, symName: __ZSt3minImERKT_S2_S2_, symObjAddr: 0x30C, symBinAddr: 0x10000373C, symSize: 0x38 }
  - { offsetInCU: 0x1B67D, offset: 0x1B67D, size: 0x8, addend: 0x0, symName: __ZNSt8__detail15_Hash_code_baseINSt7__cxx1112basic_stringIcSt11char_traitsIcESaIcEEESt4pairIKS6_St3setIiSt4lessIiESaIiEEENS_10_Select1stESt4hashIS6_ENS_18_Mod_range_hashingENS_20_Default_ranged_hashELb1EEC2Ev, symObjAddr: 0x344, symBinAddr: 0x100003774, symSize: 0x20 }
  - { offsetInCU: 0x1B6A1, offset: 0x1B6A1, size: 0x8, addend: 0x0, symName: __ZNSt8__detail20_Prime_rehash_policy8_M_resetEm, symObjAddr: 0x2E8, symBinAddr: 0x100003718, symSize: 0x24 }
  - { offsetInCU: 0x1B6A9, offset: 0x1B6A9, size: 0x8, addend: 0x0, symName: __ZSt3minImERKT_S2_S2_, symObjAddr: 0x30C, symBinAddr: 0x10000373C, symSize: 0x38 }
  - { offsetInCU: 0x1B6E4, offset: 0x1B6E4, size: 0x8, addend: 0x0, symName: __ZNKSt8__detail20_Prime_rehash_policy8_M_stateEv, symObjAddr: 0x2D0, symBinAddr: 0x100003700, symSize: 0x18 }
  - { offsetInCU: 0x1B6EC, offset: 0x1B6EC, size: 0x8, addend: 0x0, symName: __ZNSt8__detail20_Prime_rehash_policy8_M_resetEm, symObjAddr: 0x2E8, symBinAddr: 0x100003718, symSize: 0x24 }
  - { offsetInCU: 0x1B766, offset: 0x1B766, size: 0x8, addend: 0x0, symName: __ZNSt8__detail20_Prime_rehash_policyC1Ef, symObjAddr: 0x2A4, symBinAddr: 0x1000036D4, symSize: 0x2C }
  - { offsetInCU: 0x1B76E, offset: 0x1B76E, size: 0x8, addend: 0x0, symName: __ZNKSt8__detail20_Prime_rehash_policy8_M_stateEv, symObjAddr: 0x2D0, symBinAddr: 0x100003700, symSize: 0x18 }
  - { offsetInCU: 0x1B777, offset: 0x1B777, size: 0x8, addend: 0x0, symName: __ZNKSt8__detail18_Mod_range_hashingclEmm, symObjAddr: 0x274, symBinAddr: 0x1000036A4, symSize: 0x30 }
  - { offsetInCU: 0x1B77F, offset: 0x1B77F, size: 0x8, addend: 0x0, symName: __ZNSt8__detail20_Prime_rehash_policyC1Ef, symObjAddr: 0x2A4, symBinAddr: 0x1000036D4, symSize: 0x2C }
  - { offsetInCU: 0x1B80B, offset: 0x1B80B, size: 0x8, addend: 0x0, symName: __ZNSt8__detail15_Hash_node_baseC1Ev, symObjAddr: 0x258, symBinAddr: 0x100003688, symSize: 0x1C }
  - { offsetInCU: 0x1B813, offset: 0x1B813, size: 0x8, addend: 0x0, symName: __ZNKSt8__detail18_Mod_range_hashingclEmm, symObjAddr: 0x274, symBinAddr: 0x1000036A4, symSize: 0x30 }
  - { offsetInCU: 0x1B839, offset: 0x1B839, size: 0x8, addend: 0x0, symName: __ZNSt8__detail15_Hash_node_baseC2Ev, symObjAddr: 0x23C, symBinAddr: 0x10000366C, symSize: 0x1C }
  - { offsetInCU: 0x1B841, offset: 0x1B841, size: 0x8, addend: 0x0, symName: __ZNSt8__detail15_Hash_node_baseC1Ev, symObjAddr: 0x258, symBinAddr: 0x100003688, symSize: 0x1C }
  - { offsetInCU: 0x1B843, offset: 0x1B843, size: 0x8, addend: 0x0, symName: __ZNSt15_Rb_tree_header8_M_resetEv, symObjAddr: 0x200, symBinAddr: 0x100003630, symSize: 0x3C }
  - { offsetInCU: 0x1B84B, offset: 0x1B84B, size: 0x8, addend: 0x0, symName: __ZNSt8__detail15_Hash_node_baseC2Ev, symObjAddr: 0x23C, symBinAddr: 0x10000366C, symSize: 0x1C }
  - { offsetInCU: 0x1B8A6, offset: 0x1B8A6, size: 0x8, addend: 0x0, symName: __ZNSt15_Rb_tree_headerC2Ev, symObjAddr: 0x1D8, symBinAddr: 0x100003608, symSize: 0x28 }
  - { offsetInCU: 0x1B8AE, offset: 0x1B8AE, size: 0x8, addend: 0x0, symName: __ZNSt15_Rb_tree_header8_M_resetEv, symObjAddr: 0x200, symBinAddr: 0x100003630, symSize: 0x3C }
  - { offsetInCU: 0x1B8B9, offset: 0x1B8B9, size: 0x8, addend: 0x0, symName: __ZNSt10_Hash_impl4hashEPKvmm, symObjAddr: 0x1AC, symBinAddr: 0x1000035DC, symSize: 0x2C }
  - { offsetInCU: 0x1B8C1, offset: 0x1B8C1, size: 0x8, addend: 0x0, symName: __ZNSt15_Rb_tree_headerC2Ev, symObjAddr: 0x1D8, symBinAddr: 0x100003608, symSize: 0x28 }
  - { offsetInCU: 0x1B910, offset: 0x1B910, size: 0x8, addend: 0x0, symName: __ZNSt11char_traitsIcE6lengthEPKc, symObjAddr: 0x16C, symBinAddr: 0x10000359C, symSize: 0x40 }
  - { offsetInCU: 0x1B918, offset: 0x1B918, size: 0x8, addend: 0x0, symName: __ZNSt10_Hash_impl4hashEPKvmm, symObjAddr: 0x1AC, symBinAddr: 0x1000035DC, symSize: 0x2C }
  - { offsetInCU: 0x1B942, offset: 0x1B942, size: 0x8, addend: 0x0, symName: __ZNSt11char_traitsIcE7compareEPKcS2_m, symObjAddr: 0x70, symBinAddr: 0x1000034A0, symSize: 0xFC }
  - { offsetInCU: 0x1B94A, offset: 0x1B94A, size: 0x8, addend: 0x0, symName: __ZNSt11char_traitsIcE6lengthEPKc, symObjAddr: 0x16C, symBinAddr: 0x10000359C, symSize: 0x40 }
  - { offsetInCU: 0x1B9C2, offset: 0x1B9C2, size: 0x8, addend: 0x0, symName: __ZNSt11char_traitsIcE2ltERKcS2_, symObjAddr: 0x38, symBinAddr: 0x100003468, symSize: 0x38 }
  - { offsetInCU: 0x1B9CA, offset: 0x1B9CA, size: 0x8, addend: 0x0, symName: __ZNSt11char_traitsIcE7compareEPKcS2_m, symObjAddr: 0x70, symBinAddr: 0x1000034A0, symSize: 0xFC }
  - { offsetInCU: 0x1BA16, offset: 0x1BA16, size: 0x8, addend: 0x0, symName: __ZdlPvS_, symObjAddr: 0x20, symBinAddr: 0x100003450, symSize: 0x18 }
  - { offsetInCU: 0x1BA1E, offset: 0x1BA1E, size: 0x8, addend: 0x0, symName: __ZNSt11char_traitsIcE2ltERKcS2_, symObjAddr: 0x38, symBinAddr: 0x100003468, symSize: 0x38 }
  - { offsetInCU: 0x1BA53, offset: 0x1BA53, size: 0x8, addend: 0x0, symName: __ZnwmPv, symObjAddr: 0x8, symBinAddr: 0x100003438, symSize: 0x18 }
  - { offsetInCU: 0x1BA5B, offset: 0x1BA5B, size: 0x8, addend: 0x0, symName: __ZdlPvS_, symObjAddr: 0x20, symBinAddr: 0x100003450, symSize: 0x18 }
  - { offsetInCU: 0x1BAC8, offset: 0x1BAC8, size: 0x8, addend: 0x0, symName: __ZSt23__is_constant_evaluatedv, symObjAddr: 0x0, symBinAddr: 0x100003430, symSize: 0x8 }
  - { offsetInCU: 0x1BAD0, offset: 0x1BAD0, size: 0x8, addend: 0x0, symName: __ZnwmPv, symObjAddr: 0x8, symBinAddr: 0x100003438, symSize: 0x18 }
...
