---
triple:          'arm64-apple-darwin'
binary-path:     '/Users/carlosdelgado/Desktop/Coding/ICPC/Jornada2_2024/e'
relocations:
  - { offsetInCU: 0xD3, offset: 0xD3, size: 0x8, addend: 0x0, symName: __ZnwmPv, symObjAddr: 0x0, symBinAddr: 0x100004190, symSize: 0x18 }
  - { offsetInCU: 0xDB, offset: 0xDB, size: 0x8, addend: 0x0, symName: __ZL4maxN, symObjAddr: 0x233C, symBinAddr: 0x1000069F8, symSize: 0x0 }
  - { offsetInCU: 0x3764, offset: 0x3764, size: 0x8, addend: 0x0, symName: __ZStL8__ioinit, symObjAddr: 0x35838, symBinAddr: 0x10000C022, symSize: 0x0 }
  - { offsetInCU: 0x5B10, offset: 0x5B10, size: 0x8, addend: 0x0, symName: __ZL4maxN, symObjAddr: 0x233C, symBinAddr: 0x1000069F8, symSize: 0x0 }
  - { offsetInCU: 0x801E, offset: 0x801E, size: 0x8, addend: 0x0, symName: __ZNSt8__detail30__integer_to_chars_is_unsignedIjEE, symObjAddr: 0x2340, symBinAddr: 0x1000069FC, symSize: 0x0 }
  - { offsetInCU: 0x8038, offset: 0x8038, size: 0x8, addend: 0x0, symName: __ZNSt8__detail30__integer_to_chars_is_unsignedImEE, symObjAddr: 0x2341, symBinAddr: 0x1000069FD, symSize: 0x0 }
  - { offsetInCU: 0x8052, offset: 0x8052, size: 0x8, addend: 0x0, symName: __ZNSt8__detail30__integer_to_chars_is_unsignedIyEE, symObjAddr: 0x2342, symBinAddr: 0x1000069FE, symSize: 0x0 }
  - { offsetInCU: 0x8075, offset: 0x8075, size: 0x8, addend: 0x0, symName: __GLOBAL__sub_I_e.cpp, symObjAddr: 0x2328, symBinAddr: 0x1000064B8, symSize: 0x14 }
  - { offsetInCU: 0x807D, offset: 0x807D, size: 0x8, addend: 0x0, symName: __ZL4maxN, symObjAddr: 0x233C, symBinAddr: 0x1000069F8, symSize: 0x0 }
  - { offsetInCU: 0x80A4, offset: 0x80A4, size: 0x8, addend: 0x0, symName: __Z41__static_initialization_and_destruction_0v, symObjAddr: 0x22EC, symBinAddr: 0x10000647C, symSize: 0x3C }
  - { offsetInCU: 0x80AC, offset: 0x80AC, size: 0x8, addend: 0x0, symName: __GLOBAL__sub_I_e.cpp, symObjAddr: 0x2328, symBinAddr: 0x1000064B8, symSize: 0x14 }
  - { offsetInCU: 0x80D8, offset: 0x80D8, size: 0x8, addend: 0x0, symName: __ZSt4moveIRiEONSt16remove_referenceIT_E4typeEOS2_, symObjAddr: 0x22D8, symBinAddr: 0x100006468, symSize: 0x14 }
  - { offsetInCU: 0x80E0, offset: 0x80E0, size: 0x8, addend: 0x0, symName: __Z41__static_initialization_and_destruction_0v, symObjAddr: 0x22EC, symBinAddr: 0x10000647C, symSize: 0x3C }
  - { offsetInCU: 0x80EB, offset: 0x80EB, size: 0x8, addend: 0x0, symName: __ZNSt20__copy_move_backwardILb1ELb0ESt26random_access_iterator_tagE13__copy_move_bIPSt4pairIiiES5_EET0_T_S7_S6_, symObjAddr: 0x225C, symBinAddr: 0x1000063EC, symSize: 0x7C }
  - { offsetInCU: 0x80F3, offset: 0x80F3, size: 0x8, addend: 0x0, symName: __ZSt4moveIRiEONSt16remove_referenceIT_E4typeEOS2_, symObjAddr: 0x22D8, symBinAddr: 0x100006468, symSize: 0x14 }
  - { offsetInCU: 0x8219, offset: 0x8219, size: 0x8, addend: 0x0, symName: __ZSt4swapIiENSt9enable_ifIXsrSt6__and_IJSt6__not_ISt15__is_tuple_likeIT_EESt21is_move_constructibleIS4_ESt18is_move_assignableIS4_EEE5valueEvE4typeERS4_SE_, symObjAddr: 0x2208, symBinAddr: 0x100006398, symSize: 0x54 }
  - { offsetInCU: 0x8221, offset: 0x8221, size: 0x8, addend: 0x0, symName: __ZNSt20__copy_move_backwardILb1ELb0ESt26random_access_iterator_tagE13__copy_move_bIPSt4pairIiiES5_EET0_T_S7_S6_, symObjAddr: 0x225C, symBinAddr: 0x1000063EC, symSize: 0x7C }
  - { offsetInCU: 0x81EE, offset: 0x81EE, size: 0x8, addend: 0x0, symName: __ZNK9__gnu_cxx5__ops14_Iter_less_valclINS_17__normal_iteratorIPSt4pairIiiESt6vectorIS5_SaIS5_EEEES5_EEbT_RT0_, symObjAddr: 0x21D8, symBinAddr: 0x100006368, symSize: 0x30 }
  - { offsetInCU: 0x81F6, offset: 0x81F6, size: 0x8, addend: 0x0, symName: __ZSt4swapIiENSt9enable_ifIXsrSt6__and_IJSt6__not_ISt15__is_tuple_likeIT_EESt21is_move_constructibleIS4_ESt18is_move_assignableIS4_EEE5valueEvE4typeERS4_SE_, symObjAddr: 0x2208, symBinAddr: 0x100006398, symSize: 0x54 }
  - { offsetInCU: 0x82EB, offset: 0x82EB, size: 0x8, addend: 0x0, symName: __ZSt23__copy_move_backward_a2ILb1EPSt4pairIiiES2_ET1_T0_S4_S3_, symObjAddr: 0x21AC, symBinAddr: 0x10000633C, symSize: 0x2C }
  - { offsetInCU: 0x82F3, offset: 0x82F3, size: 0x8, addend: 0x0, symName: __ZNK9__gnu_cxx5__ops14_Iter_less_valclINS_17__normal_iteratorIPSt4pairIiiESt6vectorIS5_SaIS5_EEEES5_EEbT_RT0_, symObjAddr: 0x21D8, symBinAddr: 0x100006368, symSize: 0x30 }
  - { offsetInCU: 0x82EC, offset: 0x82EC, size: 0x8, addend: 0x0, symName: __ZNSt4pairIiiE4swapERS0_, symObjAddr: 0x2168, symBinAddr: 0x1000062F8, symSize: 0x44 }
  - { offsetInCU: 0x82F4, offset: 0x82F4, size: 0x8, addend: 0x0, symName: __ZSt23__copy_move_backward_a2ILb1EPSt4pairIiiES2_ET1_T0_S4_S3_, symObjAddr: 0x21AC, symBinAddr: 0x10000633C, symSize: 0x2C }
  - { offsetInCU: 0x8458, offset: 0x8458, size: 0x8, addend: 0x0, symName: __ZSt11__push_heapIN9__gnu_cxx17__normal_iteratorIPSt4pairIiiESt6vectorIS3_SaIS3_EEEElS3_NS0_5__ops14_Iter_less_valEEvT_T0_SC_T1_RT2_, symObjAddr: 0x2038, symBinAddr: 0x1000061C8, symSize: 0x130 }
  - { offsetInCU: 0x8460, offset: 0x8460, size: 0x8, addend: 0x0, symName: __ZNSt4pairIiiE4swapERS0_, symObjAddr: 0x2168, symBinAddr: 0x1000062F8, symSize: 0x44 }
  - { offsetInCU: 0x8482, offset: 0x8482, size: 0x8, addend: 0x0, symName: __ZSt4moveIRN9__gnu_cxx5__ops15_Iter_less_iterEEONSt16remove_referenceIT_E4typeEOS5_, symObjAddr: 0x2024, symBinAddr: 0x1000061B4, symSize: 0x14 }
  - { offsetInCU: 0x848A, offset: 0x848A, size: 0x8, addend: 0x0, symName: __ZSt11__push_heapIN9__gnu_cxx17__normal_iteratorIPSt4pairIiiESt6vectorIS3_SaIS3_EEEElS3_NS0_5__ops14_Iter_less_valEEvT_T0_SC_T1_RT2_, symObjAddr: 0x2038, symBinAddr: 0x1000061C8, symSize: 0x130 }
  - { offsetInCU: 0x855A, offset: 0x855A, size: 0x8, addend: 0x0, symName: __ZSt12__niter_wrapIN9__gnu_cxx17__normal_iteratorIPSt4pairIiiESt6vectorIS3_SaIS3_EEEES4_ET_S9_T0_, symObjAddr: 0x1FE8, symBinAddr: 0x100006178, symSize: 0x3C }
  - { offsetInCU: 0x8562, offset: 0x8562, size: 0x8, addend: 0x0, symName: __ZSt4moveIRN9__gnu_cxx5__ops15_Iter_less_iterEEONSt16remove_referenceIT_E4typeEOS5_, symObjAddr: 0x2024, symBinAddr: 0x1000061B4, symSize: 0x14 }
  - { offsetInCU: 0x8573, offset: 0x8573, size: 0x8, addend: 0x0, symName: __ZSt23__copy_move_backward_a1ILb1EPSt4pairIiiES2_ET1_T0_S4_S3_, symObjAddr: 0x1FBC, symBinAddr: 0x10000614C, symSize: 0x2C }
  - { offsetInCU: 0x857B, offset: 0x857B, size: 0x8, addend: 0x0, symName: __ZSt12__niter_wrapIN9__gnu_cxx17__normal_iteratorIPSt4pairIiiESt6vectorIS3_SaIS3_EEEES4_ET_S9_T0_, symObjAddr: 0x1FE8, symBinAddr: 0x100006178, symSize: 0x3C }
  - { offsetInCU: 0x861F, offset: 0x861F, size: 0x8, addend: 0x0, symName: __ZSt12__niter_baseIPSt4pairIiiESt6vectorIS1_SaIS1_EEET_N9__gnu_cxx17__normal_iteratorIS6_T0_EE, symObjAddr: 0x1F9C, symBinAddr: 0x10000612C, symSize: 0x20 }
  - { offsetInCU: 0x8627, offset: 0x8627, size: 0x8, addend: 0x0, symName: __ZSt23__copy_move_backward_a1ILb1EPSt4pairIiiES2_ET1_T0_S4_S3_, symObjAddr: 0x1FBC, symBinAddr: 0x10000614C, symSize: 0x2C }
  - { offsetInCU: 0x8649, offset: 0x8649, size: 0x8, addend: 0x0, symName: __ZSt4swapIiiENSt9enable_ifIXsrSt6__and_IJSt14__is_swappableIT_ES2_IT0_EEE5valueEvE4typeERSt4pairIS3_S5_ESC_, symObjAddr: 0x1F74, symBinAddr: 0x100006104, symSize: 0x28 }
  - { offsetInCU: 0x8651, offset: 0x8651, size: 0x8, addend: 0x0, symName: __ZSt12__niter_baseIPSt4pairIiiESt6vectorIS1_SaIS1_EEET_N9__gnu_cxx17__normal_iteratorIS6_T0_EE, symObjAddr: 0x1F9C, symBinAddr: 0x10000612C, symSize: 0x20 }
  - { offsetInCU: 0x8761, offset: 0x8761, size: 0x8, addend: 0x0, symName: __ZSt13__adjust_heapIN9__gnu_cxx17__normal_iteratorIPSt4pairIiiESt6vectorIS3_SaIS3_EEEElS3_NS0_5__ops15_Iter_less_iterEEvT_T0_SC_T1_T2_, symObjAddr: 0x1D98, symBinAddr: 0x100005F28, symSize: 0x1DC }
  - { offsetInCU: 0x8769, offset: 0x8769, size: 0x8, addend: 0x0, symName: __ZSt4swapIiiENSt9enable_ifIXsrSt6__and_IJSt14__is_swappableIT_ES2_IT0_EEE5valueEvE4typeERSt4pairIS3_S5_ESC_, symObjAddr: 0x1F74, symBinAddr: 0x100006104, symSize: 0x28 }
  - { offsetInCU: 0x87C8, offset: 0x87C8, size: 0x8, addend: 0x0, symName: __ZSt19__relocate_object_aISt4pairIiiES1_SaIS1_EEvPT_PT0_RT1_, symObjAddr: 0x1CD4, symBinAddr: 0x100005E64, symSize: 0xC4 }
  - { offsetInCU: 0x87D0, offset: 0x87D0, size: 0x8, addend: 0x0, symName: __ZSt13__adjust_heapIN9__gnu_cxx17__normal_iteratorIPSt4pairIiiESt6vectorIS3_SaIS3_EEEElS3_NS0_5__ops15_Iter_less_iterEEvT_T0_SC_T1_T2_, symObjAddr: 0x1D98, symBinAddr: 0x100005F28, symSize: 0x1DC }
  - { offsetInCU: 0x88DC, offset: 0x88DC, size: 0x8, addend: 0x0, symName: __ZSt11__addressofISt4pairIiiEEPT_RS2_, symObjAddr: 0x1CC0, symBinAddr: 0x100005E50, symSize: 0x14 }
  - { offsetInCU: 0x88E4, offset: 0x88E4, size: 0x8, addend: 0x0, symName: __ZSt19__relocate_object_aISt4pairIiiES1_SaIS1_EEvPT_PT0_RT1_, symObjAddr: 0x1CD4, symBinAddr: 0x100005E64, symSize: 0xC4 }
  - { offsetInCU: 0x8924, offset: 0x8924, size: 0x8, addend: 0x0, symName: __ZSt3minImERKT_S2_S2_, symObjAddr: 0x1C88, symBinAddr: 0x100005E18, symSize: 0x38 }
  - { offsetInCU: 0x892C, offset: 0x892C, size: 0x8, addend: 0x0, symName: __ZSt11__addressofISt4pairIiiEEPT_RS2_, symObjAddr: 0x1CC0, symBinAddr: 0x100005E50, symSize: 0x14 }
  - { offsetInCU: 0x8989, offset: 0x8989, size: 0x8, addend: 0x0, symName: __ZNK9__gnu_cxx5__ops14_Val_less_iterclISt4pairIiiENS_17__normal_iteratorIPS4_St6vectorIS4_SaIS4_EEEEEEbRT_T0_, symObjAddr: 0x1C54, symBinAddr: 0x100005DE4, symSize: 0x34 }
  - { offsetInCU: 0x8991, offset: 0x8991, size: 0x8, addend: 0x0, symName: __ZSt3minImERKT_S2_S2_, symObjAddr: 0x1C88, symBinAddr: 0x100005E18, symSize: 0x38 }
  - { offsetInCU: 0x8B3F, offset: 0x8B3F, size: 0x8, addend: 0x0, symName: __ZSt22__copy_move_backward_aILb1EN9__gnu_cxx17__normal_iteratorIPSt4pairIiiESt6vectorIS3_SaIS3_EEEES8_ET1_T0_SA_S9_, symObjAddr: 0x1BF4, symBinAddr: 0x100005D84, symSize: 0x60 }
  - { offsetInCU: 0x8B47, offset: 0x8B47, size: 0x8, addend: 0x0, symName: __ZNK9__gnu_cxx5__ops14_Val_less_iterclISt4pairIiiENS_17__normal_iteratorIPS4_St6vectorIS4_SaIS4_EEEEEEbRT_T0_, symObjAddr: 0x1C54, symBinAddr: 0x100005DE4, symSize: 0x34 }
  - { offsetInCU: 0x8B4E, offset: 0x8B4E, size: 0x8, addend: 0x0, symName: __ZSt12__miter_baseIN9__gnu_cxx17__normal_iteratorIPSt4pairIiiESt6vectorIS3_SaIS3_EEEEET_S9_, symObjAddr: 0x1BE0, symBinAddr: 0x100005D70, symSize: 0x14 }
  - { offsetInCU: 0x8B56, offset: 0x8B56, size: 0x8, addend: 0x0, symName: __ZSt22__copy_move_backward_aILb1EN9__gnu_cxx17__normal_iteratorIPSt4pairIiiESt6vectorIS3_SaIS3_EEEES8_ET1_T0_SA_S9_, symObjAddr: 0x1BF4, symBinAddr: 0x100005D84, symSize: 0x60 }
  - { offsetInCU: 0x8B0C, offset: 0x8B0C, size: 0x8, addend: 0x0, symName: __ZStltIiiEbRKSt4pairIT_T0_ES5_, symObjAddr: 0x1B78, symBinAddr: 0x100005D08, symSize: 0x68 }
  - { offsetInCU: 0x8B14, offset: 0x8B14, size: 0x8, addend: 0x0, symName: __ZSt12__miter_baseIN9__gnu_cxx17__normal_iteratorIPSt4pairIiiESt6vectorIS3_SaIS3_EEEEET_S9_, symObjAddr: 0x1BE0, symBinAddr: 0x100005D70, symSize: 0x14 }
  - { offsetInCU: 0x8C57, offset: 0x8C57, size: 0x8, addend: 0x0, symName: __ZSt9iter_swapIN9__gnu_cxx17__normal_iteratorIPSt4pairIiiESt6vectorIS3_SaIS3_EEEES8_EvT_T0_, symObjAddr: 0x1B34, symBinAddr: 0x100005CC4, symSize: 0x44 }
  - { offsetInCU: 0x8C5F, offset: 0x8C5F, size: 0x8, addend: 0x0, symName: __ZStltIiiEbRKSt4pairIT_T0_ES5_, symObjAddr: 0x1B78, symBinAddr: 0x100005D08, symSize: 0x68 }
  - { offsetInCU: 0x8BA2, offset: 0x8BA2, size: 0x8, addend: 0x0, symName: __ZN9__gnu_cxx17__normal_iteratorIPSt4pairIiiESt6vectorIS2_SaIS2_EEEmmEv, symObjAddr: 0x1B0C, symBinAddr: 0x100005C9C, symSize: 0x28 }
  - { offsetInCU: 0x8BAA, offset: 0x8BAA, size: 0x8, addend: 0x0, symName: __ZSt9iter_swapIN9__gnu_cxx17__normal_iteratorIPSt4pairIiiESt6vectorIS3_SaIS3_EEEES8_EvT_T0_, symObjAddr: 0x1B34, symBinAddr: 0x100005CC4, symSize: 0x44 }
  - { offsetInCU: 0x8CD5, offset: 0x8CD5, size: 0x8, addend: 0x0, symName: __ZSt10__pop_heapIN9__gnu_cxx17__normal_iteratorIPSt4pairIiiESt6vectorIS3_SaIS3_EEEENS0_5__ops15_Iter_less_iterEEvT_SB_SB_RT0_, symObjAddr: 0x1A7C, symBinAddr: 0x100005C0C, symSize: 0x90 }
  - { offsetInCU: 0x8CDD, offset: 0x8CDD, size: 0x8, addend: 0x0, symName: __ZN9__gnu_cxx17__normal_iteratorIPSt4pairIiiESt6vectorIS2_SaIS2_EEEmmEv, symObjAddr: 0x1B0C, symBinAddr: 0x100005C9C, symSize: 0x28 }
  - { offsetInCU: 0x8D31, offset: 0x8D31, size: 0x8, addend: 0x0, symName: __ZN9__gnu_cxxltIPSt4pairIiiESt6vectorIS2_SaIS2_EEEEbRKNS_17__normal_iteratorIT_T0_EESC_, symObjAddr: 0x1A38, symBinAddr: 0x100005BC8, symSize: 0x44 }
  - { offsetInCU: 0x8D39, offset: 0x8D39, size: 0x8, addend: 0x0, symName: __ZSt10__pop_heapIN9__gnu_cxx17__normal_iteratorIPSt4pairIiiESt6vectorIS3_SaIS3_EEEENS0_5__ops15_Iter_less_iterEEvT_SB_SB_RT0_, symObjAddr: 0x1A7C, symBinAddr: 0x100005C0C, symSize: 0x90 }
  - { offsetInCU: 0x8E0A, offset: 0x8E0A, size: 0x8, addend: 0x0, symName: __ZSt11__make_heapIN9__gnu_cxx17__normal_iteratorIPSt4pairIiiESt6vectorIS3_SaIS3_EEEENS0_5__ops15_Iter_less_iterEEvT_SB_RT0_, symObjAddr: 0x195C, symBinAddr: 0x100005AEC, symSize: 0xDC }
  - { offsetInCU: 0x8E12, offset: 0x8E12, size: 0x8, addend: 0x0, symName: __ZN9__gnu_cxxltIPSt4pairIiiESt6vectorIS2_SaIS2_EEEEbRKNS_17__normal_iteratorIT_T0_EESC_, symObjAddr: 0x1A38, symBinAddr: 0x100005BC8, symSize: 0x44 }
  - { offsetInCU: 0x8E9B, offset: 0x8E9B, size: 0x8, addend: 0x0, symName: __ZSt14__relocate_a_1IPSt4pairIiiES2_SaIS1_EET0_T_S5_S4_RT1_, symObjAddr: 0x18D8, symBinAddr: 0x100005A68, symSize: 0x84 }
  - { offsetInCU: 0x8EA3, offset: 0x8EA3, size: 0x8, addend: 0x0, symName: __ZSt11__make_heapIN9__gnu_cxx17__normal_iteratorIPSt4pairIiiESt6vectorIS3_SaIS3_EEEENS0_5__ops15_Iter_less_iterEEvT_SB_RT0_, symObjAddr: 0x195C, symBinAddr: 0x100005AEC, symSize: 0xDC }
  - { offsetInCU: 0x8EFC, offset: 0x8EFC, size: 0x8, addend: 0x0, symName: __ZSt12__niter_baseIPSt4pairIiiEET_S3_, symObjAddr: 0x18C4, symBinAddr: 0x100005A54, symSize: 0x14 }
  - { offsetInCU: 0x8F04, offset: 0x8F04, size: 0x8, addend: 0x0, symName: __ZSt14__relocate_a_1IPSt4pairIiiES2_SaIS1_EET0_T_S5_S4_RT1_, symObjAddr: 0x18D8, symBinAddr: 0x100005A68, symSize: 0x84 }
  - { offsetInCU: 0x8EFA, offset: 0x8EFA, size: 0x8, addend: 0x0, symName: __ZNSt15__new_allocatorISt4pairIiiEE8allocateEmPKv, symObjAddr: 0x1848, symBinAddr: 0x1000059D8, symSize: 0x7C }
  - { offsetInCU: 0x8F02, offset: 0x8F02, size: 0x8, addend: 0x0, symName: __ZSt12__niter_baseIPSt4pairIiiEET_S3_, symObjAddr: 0x18C4, symBinAddr: 0x100005A54, symSize: 0x14 }
  - { offsetInCU: 0x8F80, offset: 0x8F80, size: 0x8, addend: 0x0, symName: __ZNKSt12_Vector_baseISt4pairIiiESaIS1_EE19_M_get_Tp_allocatorEv, symObjAddr: 0x1834, symBinAddr: 0x1000059C4, symSize: 0x14 }
  - { offsetInCU: 0x8F88, offset: 0x8F88, size: 0x8, addend: 0x0, symName: __ZNSt15__new_allocatorISt4pairIiiEE8allocateEmPKv, symObjAddr: 0x1848, symBinAddr: 0x1000059D8, symSize: 0x7C }
  - { offsetInCU: 0x8FAF, offset: 0x8FAF, size: 0x8, addend: 0x0, symName: __ZNSt6vectorISt4pairIiiESaIS1_EE11_S_max_sizeERKS2_, symObjAddr: 0x17E0, symBinAddr: 0x100005970, symSize: 0x54 }
  - { offsetInCU: 0x8FB7, offset: 0x8FB7, size: 0x8, addend: 0x0, symName: __ZNKSt12_Vector_baseISt4pairIiiESaIS1_EE19_M_get_Tp_allocatorEv, symObjAddr: 0x1834, symBinAddr: 0x1000059C4, symSize: 0x14 }
  - { offsetInCU: 0x9195, offset: 0x9195, size: 0x8, addend: 0x0, symName: __ZSt25__unguarded_linear_insertIN9__gnu_cxx17__normal_iteratorIPSt4pairIiiESt6vectorIS3_SaIS3_EEEENS0_5__ops14_Val_less_iterEEvT_T0_, symObjAddr: 0x1728, symBinAddr: 0x1000058B8, symSize: 0xB8 }
  - { offsetInCU: 0x919D, offset: 0x919D, size: 0x8, addend: 0x0, symName: __ZNSt6vectorISt4pairIiiESaIS1_EE11_S_max_sizeERKS2_, symObjAddr: 0x17E0, symBinAddr: 0x100005970, symSize: 0x54 }
  - { offsetInCU: 0x9108, offset: 0x9108, size: 0x8, addend: 0x0, symName: __ZNSt4pairIiiEaSEOS0_, symObjAddr: 0x16E0, symBinAddr: 0x100005870, symSize: 0x48 }
  - { offsetInCU: 0x9110, offset: 0x9110, size: 0x8, addend: 0x0, symName: __ZSt25__unguarded_linear_insertIN9__gnu_cxx17__normal_iteratorIPSt4pairIiiESt6vectorIS3_SaIS3_EEEENS0_5__ops14_Val_less_iterEEvT_T0_, symObjAddr: 0x1728, symBinAddr: 0x1000058B8, symSize: 0xB8 }
  - { offsetInCU: 0x9275, offset: 0x9275, size: 0x8, addend: 0x0, symName: __ZSt13move_backwardIN9__gnu_cxx17__normal_iteratorIPSt4pairIiiESt6vectorIS3_SaIS3_EEEES8_ET0_T_SA_S9_, symObjAddr: 0x1698, symBinAddr: 0x100005828, symSize: 0x48 }
  - { offsetInCU: 0x927D, offset: 0x927D, size: 0x8, addend: 0x0, symName: __ZNSt4pairIiiEaSEOS0_, symObjAddr: 0x16E0, symBinAddr: 0x100005870, symSize: 0x48 }
  - { offsetInCU: 0x91DF, offset: 0x91DF, size: 0x8, addend: 0x0, symName: __ZNK9__gnu_cxx5__ops15_Iter_less_iterclINS_17__normal_iteratorIPSt4pairIiiESt6vectorIS5_SaIS5_EEEESA_EEbT_T0_, symObjAddr: 0x1650, symBinAddr: 0x1000057E0, symSize: 0x48 }
  - { offsetInCU: 0x91E7, offset: 0x91E7, size: 0x8, addend: 0x0, symName: __ZSt13move_backwardIN9__gnu_cxx17__normal_iteratorIPSt4pairIiiESt6vectorIS3_SaIS3_EEEES8_ET0_T_SA_S9_, symObjAddr: 0x1698, symBinAddr: 0x100005828, symSize: 0x48 }
  - { offsetInCU: 0x92F0, offset: 0x92F0, size: 0x8, addend: 0x0, symName: __ZN9__gnu_cxxeqIPSt4pairIiiESt6vectorIS2_SaIS2_EEEEbRKNS_17__normal_iteratorIT_T0_EESC_, symObjAddr: 0x160C, symBinAddr: 0x10000579C, symSize: 0x44 }
  - { offsetInCU: 0x92F8, offset: 0x92F8, size: 0x8, addend: 0x0, symName: __ZNK9__gnu_cxx5__ops15_Iter_less_iterclINS_17__normal_iteratorIPSt4pairIiiESt6vectorIS5_SaIS5_EEEESA_EEbT_T0_, symObjAddr: 0x1650, symBinAddr: 0x1000057E0, symSize: 0x48 }
  - { offsetInCU: 0x93DB, offset: 0x93DB, size: 0x8, addend: 0x0, symName: __ZSt21__unguarded_partitionIN9__gnu_cxx17__normal_iteratorIPSt4pairIiiESt6vectorIS3_SaIS3_EEEENS0_5__ops15_Iter_less_iterEET_SB_SB_SB_T0_, symObjAddr: 0x1548, symBinAddr: 0x1000056D8, symSize: 0xC4 }
  - { offsetInCU: 0x93E3, offset: 0x93E3, size: 0x8, addend: 0x0, symName: __ZN9__gnu_cxxeqIPSt4pairIiiESt6vectorIS2_SaIS2_EEEEbRKNS_17__normal_iteratorIT_T0_EESC_, symObjAddr: 0x160C, symBinAddr: 0x10000579C, symSize: 0x44 }
  - { offsetInCU: 0x946E, offset: 0x946E, size: 0x8, addend: 0x0, symName: __ZSt22__move_median_to_firstIN9__gnu_cxx17__normal_iteratorIPSt4pairIiiESt6vectorIS3_SaIS3_EEEENS0_5__ops15_Iter_less_iterEEvT_SB_SB_SB_T0_, symObjAddr: 0x1424, symBinAddr: 0x1000055B4, symSize: 0x124 }
  - { offsetInCU: 0x9476, offset: 0x9476, size: 0x8, addend: 0x0, symName: __ZSt21__unguarded_partitionIN9__gnu_cxx17__normal_iteratorIPSt4pairIiiESt6vectorIS3_SaIS3_EEEENS0_5__ops15_Iter_less_iterEET_SB_SB_SB_T0_, symObjAddr: 0x1548, symBinAddr: 0x1000056D8, symSize: 0xC4 }
  - { offsetInCU: 0x94EF, offset: 0x94EF, size: 0x8, addend: 0x0, symName: __ZSt11__sort_heapIN9__gnu_cxx17__normal_iteratorIPSt4pairIiiESt6vectorIS3_SaIS3_EEEENS0_5__ops15_Iter_less_iterEEvT_SB_RT0_, symObjAddr: 0x13BC, symBinAddr: 0x10000554C, symSize: 0x68 }
  - { offsetInCU: 0x94F7, offset: 0x94F7, size: 0x8, addend: 0x0, symName: __ZSt22__move_median_to_firstIN9__gnu_cxx17__normal_iteratorIPSt4pairIiiESt6vectorIS3_SaIS3_EEEENS0_5__ops15_Iter_less_iterEEvT_SB_SB_SB_T0_, symObjAddr: 0x1424, symBinAddr: 0x1000055B4, symSize: 0x124 }
  - { offsetInCU: 0x956E, offset: 0x956E, size: 0x8, addend: 0x0, symName: __ZSt13__heap_selectIN9__gnu_cxx17__normal_iteratorIPSt4pairIiiESt6vectorIS3_SaIS3_EEEENS0_5__ops15_Iter_less_iterEEvT_SB_SB_T0_, symObjAddr: 0x1318, symBinAddr: 0x1000054A8, symSize: 0xA4 }
  - { offsetInCU: 0x9576, offset: 0x9576, size: 0x8, addend: 0x0, symName: __ZSt11__sort_heapIN9__gnu_cxx17__normal_iteratorIPSt4pairIiiESt6vectorIS3_SaIS3_EEEENS0_5__ops15_Iter_less_iterEEvT_SB_RT0_, symObjAddr: 0x13BC, symBinAddr: 0x10000554C, symSize: 0x68 }
  - { offsetInCU: 0x9556, offset: 0x9556, size: 0x8, addend: 0x0, symName: __ZSt13__countl_zeroImEiT_, symObjAddr: 0x12C4, symBinAddr: 0x100005454, symSize: 0x54 }
  - { offsetInCU: 0x955E, offset: 0x955E, size: 0x8, addend: 0x0, symName: __ZSt13__heap_selectIN9__gnu_cxx17__normal_iteratorIPSt4pairIiiESt6vectorIS3_SaIS3_EEEENS0_5__ops15_Iter_less_iterEEvT_SB_SB_T0_, symObjAddr: 0x1318, symBinAddr: 0x1000054A8, symSize: 0xA4 }
  - { offsetInCU: 0x96A7, offset: 0x96A7, size: 0x8, addend: 0x0, symName: __ZSt12__relocate_aIPSt4pairIiiES2_SaIS1_EET0_T_S5_S4_RT1_, symObjAddr: 0x1268, symBinAddr: 0x1000053F8, symSize: 0x5C }
  - { offsetInCU: 0x96AF, offset: 0x96AF, size: 0x8, addend: 0x0, symName: __ZSt13__countl_zeroImEiT_, symObjAddr: 0x12C4, symBinAddr: 0x100005454, symSize: 0x54 }
  - { offsetInCU: 0x9709, offset: 0x9709, size: 0x8, addend: 0x0, symName: __ZSt3maxImERKT_S2_S2_, symObjAddr: 0x1230, symBinAddr: 0x1000053C0, symSize: 0x38 }
  - { offsetInCU: 0x9711, offset: 0x9711, size: 0x8, addend: 0x0, symName: __ZSt12__relocate_aIPSt4pairIiiES2_SaIS1_EET0_T_S5_S4_RT1_, symObjAddr: 0x1268, symBinAddr: 0x1000053F8, symSize: 0x5C }
  - { offsetInCU: 0x9737, offset: 0x9737, size: 0x8, addend: 0x0, symName: __ZNKSt6vectorISt4pairIiiESaIS1_EE4sizeEv, symObjAddr: 0x1208, symBinAddr: 0x100005398, symSize: 0x28 }
  - { offsetInCU: 0x973F, offset: 0x973F, size: 0x8, addend: 0x0, symName: __ZSt3maxImERKT_S2_S2_, symObjAddr: 0x1230, symBinAddr: 0x1000053C0, symSize: 0x38 }
  - { offsetInCU: 0x9766, offset: 0x9766, size: 0x8, addend: 0x0, symName: __ZNKSt6vectorISt4pairIiiESaIS1_EE8max_sizeEv, symObjAddr: 0x11E8, symBinAddr: 0x100005378, symSize: 0x20 }
  - { offsetInCU: 0x976E, offset: 0x976E, size: 0x8, addend: 0x0, symName: __ZNKSt6vectorISt4pairIiiESaIS1_EE4sizeEv, symObjAddr: 0x1208, symBinAddr: 0x100005398, symSize: 0x28 }
  - { offsetInCU: 0x98B6, offset: 0x98B6, size: 0x8, addend: 0x0, symName: __ZSt26__unguarded_insertion_sortIN9__gnu_cxx17__normal_iteratorIPSt4pairIiiESt6vectorIS3_SaIS3_EEEENS0_5__ops15_Iter_less_iterEEvT_SB_T0_, symObjAddr: 0x1178, symBinAddr: 0x100005308, symSize: 0x70 }
  - { offsetInCU: 0x98BE, offset: 0x98BE, size: 0x8, addend: 0x0, symName: __ZNKSt6vectorISt4pairIiiESaIS1_EE8max_sizeEv, symObjAddr: 0x11E8, symBinAddr: 0x100005378, symSize: 0x20 }
  - { offsetInCU: 0x9941, offset: 0x9941, size: 0x8, addend: 0x0, symName: __ZSt16__insertion_sortIN9__gnu_cxx17__normal_iteratorIPSt4pairIiiESt6vectorIS3_SaIS3_EEEENS0_5__ops15_Iter_less_iterEEvT_SB_T0_, symObjAddr: 0x106C, symBinAddr: 0x1000051FC, symSize: 0x10C }
  - { offsetInCU: 0x9949, offset: 0x9949, size: 0x8, addend: 0x0, symName: __ZSt26__unguarded_insertion_sortIN9__gnu_cxx17__normal_iteratorIPSt4pairIiiESt6vectorIS3_SaIS3_EEEENS0_5__ops15_Iter_less_iterEEvT_SB_T0_, symObjAddr: 0x1178, symBinAddr: 0x100005308, symSize: 0x70 }
  - { offsetInCU: 0x98F9, offset: 0x98F9, size: 0x8, addend: 0x0, symName: __ZNK9__gnu_cxx17__normal_iteratorIPSt4pairIiiESt6vectorIS2_SaIS2_EEEplEl, symObjAddr: 0x102C, symBinAddr: 0x1000051BC, symSize: 0x40 }
  - { offsetInCU: 0x9901, offset: 0x9901, size: 0x8, addend: 0x0, symName: __ZSt16__insertion_sortIN9__gnu_cxx17__normal_iteratorIPSt4pairIiiESt6vectorIS3_SaIS3_EEEENS0_5__ops15_Iter_less_iterEEvT_SB_T0_, symObjAddr: 0x106C, symBinAddr: 0x1000051FC, symSize: 0x10C }
  - { offsetInCU: 0x9A65, offset: 0x9A65, size: 0x8, addend: 0x0, symName: __ZSt27__unguarded_partition_pivotIN9__gnu_cxx17__normal_iteratorIPSt4pairIiiESt6vectorIS3_SaIS3_EEEENS0_5__ops15_Iter_less_iterEET_SB_SB_T0_, symObjAddr: 0xF88, symBinAddr: 0x100005118, symSize: 0xA4 }
  - { offsetInCU: 0x9A6D, offset: 0x9A6D, size: 0x8, addend: 0x0, symName: __ZNK9__gnu_cxx17__normal_iteratorIPSt4pairIiiESt6vectorIS2_SaIS2_EEEplEl, symObjAddr: 0x102C, symBinAddr: 0x1000051BC, symSize: 0x40 }
  - { offsetInCU: 0x9ADD, offset: 0x9ADD, size: 0x8, addend: 0x0, symName: __ZSt14__partial_sortIN9__gnu_cxx17__normal_iteratorIPSt4pairIiiESt6vectorIS3_SaIS3_EEEENS0_5__ops15_Iter_less_iterEEvT_SB_SB_T0_, symObjAddr: 0xF3C, symBinAddr: 0x1000050CC, symSize: 0x4C }
  - { offsetInCU: 0x9AE5, offset: 0x9AE5, size: 0x8, addend: 0x0, symName: __ZSt27__unguarded_partition_pivotIN9__gnu_cxx17__normal_iteratorIPSt4pairIiiESt6vectorIS3_SaIS3_EEEENS0_5__ops15_Iter_less_iterEET_SB_SB_T0_, symObjAddr: 0xF88, symBinAddr: 0x100005118, symSize: 0xA4 }
  - { offsetInCU: 0x9A9A, offset: 0x9A9A, size: 0x8, addend: 0x0, symName: __ZSt11__bit_widthImEiT_, symObjAddr: 0xF0C, symBinAddr: 0x10000509C, symSize: 0x30 }
  - { offsetInCU: 0x9AA2, offset: 0x9AA2, size: 0x8, addend: 0x0, symName: __ZSt14__partial_sortIN9__gnu_cxx17__normal_iteratorIPSt4pairIiiESt6vectorIS3_SaIS3_EEEENS0_5__ops15_Iter_less_iterEEvT_SB_SB_T0_, symObjAddr: 0xF3C, symBinAddr: 0x1000050CC, symSize: 0x4C }
  - { offsetInCU: 0x9ABE, offset: 0x9ABE, size: 0x8, addend: 0x0, symName: __ZNK9__gnu_cxx17__normal_iteratorIPSt4pairIiiESt6vectorIS2_SaIS2_EEEmiEl, symObjAddr: 0xEC8, symBinAddr: 0x100005058, symSize: 0x44 }
  - { offsetInCU: 0x9AC6, offset: 0x9AC6, size: 0x8, addend: 0x0, symName: __ZSt11__bit_widthImEiT_, symObjAddr: 0xF0C, symBinAddr: 0x10000509C, symSize: 0x30 }
  - { offsetInCU: 0x9B3B, offset: 0x9B3B, size: 0x8, addend: 0x0, symName: __ZNSt6vectorISt4pairIiiESaIS1_EE11_S_relocateEPS1_S4_S4_RS2_, symObjAddr: 0xE94, symBinAddr: 0x100005024, symSize: 0x34 }
  - { offsetInCU: 0x9B43, offset: 0x9B43, size: 0x8, addend: 0x0, symName: __ZNK9__gnu_cxx17__normal_iteratorIPSt4pairIiiESt6vectorIS2_SaIS2_EEEmiEl, symObjAddr: 0xEC8, symBinAddr: 0x100005058, symSize: 0x44 }
  - { offsetInCU: 0x9BA9, offset: 0x9BA9, size: 0x8, addend: 0x0, symName: __ZNSt12_Vector_baseISt4pairIiiESaIS1_EE11_M_allocateEm, symObjAddr: 0xE44, symBinAddr: 0x100004FD4, symSize: 0x50 }
  - { offsetInCU: 0x9BB1, offset: 0x9BB1, size: 0x8, addend: 0x0, symName: __ZNSt6vectorISt4pairIiiESaIS1_EE11_S_relocateEPS1_S4_S4_RS2_, symObjAddr: 0xE94, symBinAddr: 0x100005024, symSize: 0x34 }
  - { offsetInCU: 0x9C1E, offset: 0x9C1E, size: 0x8, addend: 0x0, symName: __ZNKSt6vectorISt4pairIiiESaIS1_EE12_M_check_lenEmPKc, symObjAddr: 0xD74, symBinAddr: 0x100004F04, symSize: 0xD0 }
  - { offsetInCU: 0x9C26, offset: 0x9C26, size: 0x8, addend: 0x0, symName: __ZNSt12_Vector_baseISt4pairIiiESaIS1_EE11_M_allocateEm, symObjAddr: 0xE44, symBinAddr: 0x100004FD4, symSize: 0x50 }
  - { offsetInCU: 0x9CDC, offset: 0x9CDC, size: 0x8, addend: 0x0, symName: __ZNSt12_Destroy_auxILb1EE9__destroyIPSt4pairIiiEEEvT_S5_, symObjAddr: 0xD5C, symBinAddr: 0x100004EEC, symSize: 0x18 }
  - { offsetInCU: 0x9CE4, offset: 0x9CE4, size: 0x8, addend: 0x0, symName: __ZNKSt6vectorISt4pairIiiESaIS1_EE12_M_check_lenEmPKc, symObjAddr: 0xD74, symBinAddr: 0x100004F04, symSize: 0xD0 }
  - { offsetInCU: 0x9D1F, offset: 0x9D1F, size: 0x8, addend: 0x0, symName: __ZNSt15__new_allocatorISt4pairIiiEE10deallocateEPS1_m, symObjAddr: 0xD2C, symBinAddr: 0x100004EBC, symSize: 0x30 }
  - { offsetInCU: 0x9D27, offset: 0x9D27, size: 0x8, addend: 0x0, symName: __ZNSt12_Destroy_auxILb1EE9__destroyIPSt4pairIiiEEEvT_S5_, symObjAddr: 0xD5C, symBinAddr: 0x100004EEC, symSize: 0x18 }
  - { offsetInCU: 0x9E8D, offset: 0x9E8D, size: 0x8, addend: 0x0, symName: __ZSt22__final_insertion_sortIN9__gnu_cxx17__normal_iteratorIPSt4pairIiiESt6vectorIS3_SaIS3_EEEENS0_5__ops15_Iter_less_iterEEvT_SB_T0_, symObjAddr: 0xC90, symBinAddr: 0x100004E20, symSize: 0x9C }
  - { offsetInCU: 0x9E95, offset: 0x9E95, size: 0x8, addend: 0x0, symName: __ZNSt15__new_allocatorISt4pairIiiEE10deallocateEPS1_m, symObjAddr: 0xD2C, symBinAddr: 0x100004EBC, symSize: 0x30 }
  - { offsetInCU: 0x9F08, offset: 0x9F08, size: 0x8, addend: 0x0, symName: __ZSt16__introsort_loopIN9__gnu_cxx17__normal_iteratorIPSt4pairIiiESt6vectorIS3_SaIS3_EEEElNS0_5__ops15_Iter_less_iterEEvT_SB_T0_T1_, symObjAddr: 0xBD8, symBinAddr: 0x100004D68, symSize: 0xB8 }
  - { offsetInCU: 0x9F10, offset: 0x9F10, size: 0x8, addend: 0x0, symName: __ZSt22__final_insertion_sortIN9__gnu_cxx17__normal_iteratorIPSt4pairIiiESt6vectorIS3_SaIS3_EEEENS0_5__ops15_Iter_less_iterEEvT_SB_T0_, symObjAddr: 0xC90, symBinAddr: 0x100004E20, symSize: 0x9C }
  - { offsetInCU: 0x9ED3, offset: 0x9ED3, size: 0x8, addend: 0x0, symName: __ZSt4__lgIlET_S0_, symObjAddr: 0xBB4, symBinAddr: 0x100004D44, symSize: 0x24 }
  - { offsetInCU: 0x9EDB, offset: 0x9EDB, size: 0x8, addend: 0x0, symName: __ZSt16__introsort_loopIN9__gnu_cxx17__normal_iteratorIPSt4pairIiiESt6vectorIS3_SaIS3_EEEElNS0_5__ops15_Iter_less_iterEEvT_SB_T0_T1_, symObjAddr: 0xBD8, symBinAddr: 0x100004D68, symSize: 0xB8 }
  - { offsetInCU: 0x9FAD, offset: 0x9FAD, size: 0x8, addend: 0x0, symName: __ZN9__gnu_cxxmiIPSt4pairIiiESt6vectorIS2_SaIS2_EEEENS_17__normal_iteratorIT_T0_E15difference_typeERKSA_SD_, symObjAddr: 0xB74, symBinAddr: 0x100004D04, symSize: 0x40 }
  - { offsetInCU: 0x9FB5, offset: 0x9FB5, size: 0x8, addend: 0x0, symName: __ZSt4__lgIlET_S0_, symObjAddr: 0xBB4, symBinAddr: 0x100004D44, symSize: 0x24 }
  - { offsetInCU: 0x9F66, offset: 0x9F66, size: 0x8, addend: 0x0, symName: __ZNSt6vectorISt4pairIiiESaIS1_EE4backEv, symObjAddr: 0xB3C, symBinAddr: 0x100004CCC, symSize: 0x38 }
  - { offsetInCU: 0x9F6E, offset: 0x9F6E, size: 0x8, addend: 0x0, symName: __ZN9__gnu_cxxmiIPSt4pairIiiESt6vectorIS2_SaIS2_EEEENS_17__normal_iteratorIT_T0_E15difference_typeERKSA_SD_, symObjAddr: 0xB74, symBinAddr: 0x100004D04, symSize: 0x40 }
  - { offsetInCU: 0x9F95, offset: 0x9F95, size: 0x8, addend: 0x0, symName: __ZNSt6vectorISt4pairIiiESaIS1_EE17_M_realloc_insertIJS1_EEEvN9__gnu_cxx17__normal_iteratorIPS1_S3_EEDpOT_, symObjAddr: 0x97C, symBinAddr: 0x100004B0C, symSize: 0x1C0 }
  - { offsetInCU: 0x9F9D, offset: 0x9F9D, size: 0x8, addend: 0x0, symName: __ZNSt6vectorISt4pairIiiESaIS1_EE4backEv, symObjAddr: 0xB3C, symBinAddr: 0x100004CCC, symSize: 0x38 }
  - { offsetInCU: 0xA1AC, offset: 0xA1AC, size: 0x8, addend: 0x0, symName: __ZSt7forwardISt4pairIiiEEOT_RNSt16remove_referenceIS2_E4typeE, symObjAddr: 0x968, symBinAddr: 0x100004AF8, symSize: 0x14 }
  - { offsetInCU: 0xA1B4, offset: 0xA1B4, size: 0x8, addend: 0x0, symName: __ZNSt6vectorISt4pairIiiESaIS1_EE17_M_realloc_insertIJS1_EEEvN9__gnu_cxx17__normal_iteratorIPS1_S3_EEDpOT_, symObjAddr: 0x97C, symBinAddr: 0x100004B0C, symSize: 0x1C0 }
  - { offsetInCU: 0xA1E1, offset: 0xA1E1, size: 0x8, addend: 0x0, symName: __ZSt8_DestroyIPSt4pairIiiEEvT_S3_, symObjAddr: 0x940, symBinAddr: 0x100004AD0, symSize: 0x28 }
  - { offsetInCU: 0xA1E9, offset: 0xA1E9, size: 0x8, addend: 0x0, symName: __ZSt7forwardISt4pairIiiEEOT_RNSt16remove_referenceIS2_E4typeE, symObjAddr: 0x968, symBinAddr: 0x100004AF8, symSize: 0x14 }
  - { offsetInCU: 0xA24C, offset: 0xA24C, size: 0x8, addend: 0x0, symName: __ZNK9__gnu_cxx17__normal_iteratorIPSt4pairIiiESt6vectorIS2_SaIS2_EEE4baseEv, symObjAddr: 0x92C, symBinAddr: 0x100004ABC, symSize: 0x14 }
  - { offsetInCU: 0xA254, offset: 0xA254, size: 0x8, addend: 0x0, symName: __ZSt8_DestroyIPSt4pairIiiEEvT_S3_, symObjAddr: 0x940, symBinAddr: 0x100004AD0, symSize: 0x28 }
  - { offsetInCU: 0xA373, offset: 0xA373, size: 0x8, addend: 0x0, symName: __ZSt6__sortIN9__gnu_cxx17__normal_iteratorIPSt4pairIiiESt6vectorIS3_SaIS3_EEEENS0_5__ops15_Iter_less_iterEEvT_SB_T0_, symObjAddr: 0x8B0, symBinAddr: 0x100004A40, symSize: 0x7C }
  - { offsetInCU: 0xA37B, offset: 0xA37B, size: 0x8, addend: 0x0, symName: __ZNK9__gnu_cxx17__normal_iteratorIPSt4pairIiiESt6vectorIS2_SaIS2_EEE4baseEv, symObjAddr: 0x92C, symBinAddr: 0x100004ABC, symSize: 0x14 }
  - { offsetInCU: 0xA36A, offset: 0xA36A, size: 0x8, addend: 0x0, symName: __ZN9__gnu_cxx17__normal_iteratorIPSt4pairIiiESt6vectorIS2_SaIS2_EEEC1ERKS3_, symObjAddr: 0x888, symBinAddr: 0x100004A18, symSize: 0x28 }
  - { offsetInCU: 0xA372, offset: 0xA372, size: 0x8, addend: 0x0, symName: __ZSt6__sortIN9__gnu_cxx17__normal_iteratorIPSt4pairIiiESt6vectorIS3_SaIS3_EEEENS0_5__ops15_Iter_less_iterEEvT_SB_T0_, symObjAddr: 0x8B0, symBinAddr: 0x100004A40, symSize: 0x7C }
  - { offsetInCU: 0xA358, offset: 0xA358, size: 0x8, addend: 0x0, symName: __ZNSt6vectorISt4pairIiiESaIS1_EE12emplace_backIJS1_EEERS1_DpOT_, symObjAddr: 0x7A0, symBinAddr: 0x100004930, symSize: 0xE8 }
  - { offsetInCU: 0xA360, offset: 0xA360, size: 0x8, addend: 0x0, symName: __ZN9__gnu_cxx17__normal_iteratorIPSt4pairIiiESt6vectorIS2_SaIS2_EEEC1ERKS3_, symObjAddr: 0x888, symBinAddr: 0x100004A18, symSize: 0x28 }
  - { offsetInCU: 0xA47E, offset: 0xA47E, size: 0x8, addend: 0x0, symName: __ZSt4moveIRSt4pairIiiEEONSt16remove_referenceIT_E4typeEOS4_, symObjAddr: 0x78C, symBinAddr: 0x10000491C, symSize: 0x14 }
  - { offsetInCU: 0xA486, offset: 0xA486, size: 0x8, addend: 0x0, symName: __ZNSt6vectorISt4pairIiiESaIS1_EE12emplace_backIJS1_EEERS1_DpOT_, symObjAddr: 0x7A0, symBinAddr: 0x100004930, symSize: 0xE8 }
  - { offsetInCU: 0xA4BE, offset: 0xA4BE, size: 0x8, addend: 0x0, symName: __ZSt7forwardIRiEOT_RNSt16remove_referenceIS1_E4typeE, symObjAddr: 0x778, symBinAddr: 0x100004908, symSize: 0x14 }
  - { offsetInCU: 0xA4C6, offset: 0xA4C6, size: 0x8, addend: 0x0, symName: __ZSt4moveIRSt4pairIiiEEONSt16remove_referenceIT_E4typeEOS4_, symObjAddr: 0x78C, symBinAddr: 0x10000491C, symSize: 0x14 }
  - { offsetInCU: 0xA510, offset: 0xA510, size: 0x8, addend: 0x0, symName: __ZSt7forwardIiEOT_RNSt16remove_referenceIS0_E4typeE, symObjAddr: 0x764, symBinAddr: 0x1000048F4, symSize: 0x14 }
  - { offsetInCU: 0xA518, offset: 0xA518, size: 0x8, addend: 0x0, symName: __ZSt7forwardIRiEOT_RNSt16remove_referenceIS1_E4typeE, symObjAddr: 0x778, symBinAddr: 0x100004908, symSize: 0x14 }
  - { offsetInCU: 0xA574, offset: 0xA574, size: 0x8, addend: 0x0, symName: __ZNSt12_Vector_baseISt4pairIiiESaIS1_EE19_M_get_Tp_allocatorEv, symObjAddr: 0x750, symBinAddr: 0x1000048E0, symSize: 0x14 }
  - { offsetInCU: 0xA57C, offset: 0xA57C, size: 0x8, addend: 0x0, symName: __ZSt7forwardIiEOT_RNSt16remove_referenceIS0_E4typeE, symObjAddr: 0x764, symBinAddr: 0x1000048F4, symSize: 0x14 }
  - { offsetInCU: 0xA5A3, offset: 0xA5A3, size: 0x8, addend: 0x0, symName: __ZNSt12_Vector_baseISt4pairIiiESaIS1_EE13_M_deallocateEPS1_m, symObjAddr: 0x6F8, symBinAddr: 0x100004888, symSize: 0x58 }
  - { offsetInCU: 0xA5AB, offset: 0xA5AB, size: 0x8, addend: 0x0, symName: __ZNSt12_Vector_baseISt4pairIiiESaIS1_EE19_M_get_Tp_allocatorEv, symObjAddr: 0x750, symBinAddr: 0x1000048E0, symSize: 0x14 }
  - { offsetInCU: 0xA687, offset: 0xA687, size: 0x8, addend: 0x0, symName: __ZNSt15__new_allocatorISt4pairIiiEED2Ev, symObjAddr: 0x6E4, symBinAddr: 0x100004874, symSize: 0x14 }
  - { offsetInCU: 0xA68F, offset: 0xA68F, size: 0x8, addend: 0x0, symName: __ZNSt12_Vector_baseISt4pairIiiESaIS1_EE13_M_deallocateEPS1_m, symObjAddr: 0x6F8, symBinAddr: 0x100004888, symSize: 0x58 }
  - { offsetInCU: 0xA6E5, offset: 0xA6E5, size: 0x8, addend: 0x0, symName: __ZNSt12_Vector_baseISt4pairIiiESaIS1_EE17_Vector_impl_dataC2Ev, symObjAddr: 0x6B8, symBinAddr: 0x100004848, symSize: 0x2C }
  - { offsetInCU: 0xA6ED, offset: 0xA6ED, size: 0x8, addend: 0x0, symName: __ZNSt15__new_allocatorISt4pairIiiEED2Ev, symObjAddr: 0x6E4, symBinAddr: 0x100004874, symSize: 0x14 }
  - { offsetInCU: 0xA6ED, offset: 0xA6ED, size: 0x8, addend: 0x0, symName: __ZNK9__gnu_cxx17__normal_iteratorIPSt4pairIiiESt6vectorIS2_SaIS2_EEEdeEv, symObjAddr: 0x6A0, symBinAddr: 0x100004830, symSize: 0x18 }
  - { offsetInCU: 0xA6F5, offset: 0xA6F5, size: 0x8, addend: 0x0, symName: __ZNSt12_Vector_baseISt4pairIiiESaIS1_EE17_Vector_impl_dataC2Ev, symObjAddr: 0x6B8, symBinAddr: 0x100004848, symSize: 0x2C }
  - { offsetInCU: 0xA71C, offset: 0xA71C, size: 0x8, addend: 0x0, symName: __ZN9__gnu_cxx17__normal_iteratorIPSt4pairIiiESt6vectorIS2_SaIS2_EEEppEv, symObjAddr: 0x678, symBinAddr: 0x100004808, symSize: 0x28 }
  - { offsetInCU: 0xA724, offset: 0xA724, size: 0x8, addend: 0x0, symName: __ZNK9__gnu_cxx17__normal_iteratorIPSt4pairIiiESt6vectorIS2_SaIS2_EEEdeEv, symObjAddr: 0x6A0, symBinAddr: 0x100004830, symSize: 0x18 }
  - { offsetInCU: 0xA7ED, offset: 0xA7ED, size: 0x8, addend: 0x0, symName: __ZN9__gnu_cxxneIPSt4pairIiiESt6vectorIS2_SaIS2_EEEEbRKNS_17__normal_iteratorIT_T0_EESC_, symObjAddr: 0x634, symBinAddr: 0x1000047C4, symSize: 0x44 }
  - { offsetInCU: 0xA7F5, offset: 0xA7F5, size: 0x8, addend: 0x0, symName: __ZN9__gnu_cxx17__normal_iteratorIPSt4pairIiiESt6vectorIS2_SaIS2_EEEppEv, symObjAddr: 0x678, symBinAddr: 0x100004808, symSize: 0x28 }
  - { offsetInCU: 0xA82E, offset: 0xA82E, size: 0x8, addend: 0x0, symName: __ZNSt4pairIiiEC1IiiLb1EEEOT_OT0_, symObjAddr: 0x5EC, symBinAddr: 0x10000477C, symSize: 0x48 }
  - { offsetInCU: 0xA836, offset: 0xA836, size: 0x8, addend: 0x0, symName: __ZN9__gnu_cxxneIPSt4pairIiiESt6vectorIS2_SaIS2_EEEEbRKNS_17__normal_iteratorIT_T0_EESC_, symObjAddr: 0x634, symBinAddr: 0x1000047C4, symSize: 0x44 }
  - { offsetInCU: 0xA86D, offset: 0xA86D, size: 0x8, addend: 0x0, symName: __ZNSt6vectorISt4pairIiiESaIS1_EEixEm, symObjAddr: 0x5C4, symBinAddr: 0x100004754, symSize: 0x28 }
  - { offsetInCU: 0xA875, offset: 0xA875, size: 0x8, addend: 0x0, symName: __ZNSt4pairIiiEC1IiiLb1EEEOT_OT0_, symObjAddr: 0x5EC, symBinAddr: 0x10000477C, symSize: 0x48 }
  - { offsetInCU: 0xA963, offset: 0xA963, size: 0x8, addend: 0x0, symName: __ZSt4sortIN9__gnu_cxx17__normal_iteratorIPSt4pairIiiESt6vectorIS3_SaIS3_EEEEEvT_S9_, symObjAddr: 0x58C, symBinAddr: 0x10000471C, symSize: 0x38 }
  - { offsetInCU: 0xA96B, offset: 0xA96B, size: 0x8, addend: 0x0, symName: __ZNSt6vectorISt4pairIiiESaIS1_EEixEm, symObjAddr: 0x5C4, symBinAddr: 0x100004754, symSize: 0x28 }
  - { offsetInCU: 0xA908, offset: 0xA908, size: 0x8, addend: 0x0, symName: __ZNSt6vectorISt4pairIiiESaIS1_EE3endEv, symObjAddr: 0x564, symBinAddr: 0x1000046F4, symSize: 0x28 }
  - { offsetInCU: 0xA910, offset: 0xA910, size: 0x8, addend: 0x0, symName: __ZSt4sortIN9__gnu_cxx17__normal_iteratorIPSt4pairIiiESt6vectorIS3_SaIS3_EEEEEvT_S9_, symObjAddr: 0x58C, symBinAddr: 0x10000471C, symSize: 0x38 }
  - { offsetInCU: 0xA937, offset: 0xA937, size: 0x8, addend: 0x0, symName: __ZNSt6vectorISt4pairIiiESaIS1_EE5beginEv, symObjAddr: 0x540, symBinAddr: 0x1000046D0, symSize: 0x24 }
  - { offsetInCU: 0xA93F, offset: 0xA93F, size: 0x8, addend: 0x0, symName: __ZNSt6vectorISt4pairIiiESaIS1_EE3endEv, symObjAddr: 0x564, symBinAddr: 0x1000046F4, symSize: 0x28 }
  - { offsetInCU: 0xA966, offset: 0xA966, size: 0x8, addend: 0x0, symName: __ZNSt6vectorISt4pairIiiESaIS1_EE9push_backEOS1_, symObjAddr: 0x510, symBinAddr: 0x1000046A0, symSize: 0x30 }
  - { offsetInCU: 0xA96E, offset: 0xA96E, size: 0x8, addend: 0x0, symName: __ZNSt6vectorISt4pairIiiESaIS1_EE5beginEv, symObjAddr: 0x540, symBinAddr: 0x1000046D0, symSize: 0x24 }
  - { offsetInCU: 0xAA20, offset: 0xAA20, size: 0x8, addend: 0x0, symName: __ZNSt4pairIiiEC1IiRiLb1EEEOT_OT0_, symObjAddr: 0x4C8, symBinAddr: 0x100004658, symSize: 0x48 }
  - { offsetInCU: 0xAA28, offset: 0xAA28, size: 0x8, addend: 0x0, symName: __ZNSt6vectorISt4pairIiiESaIS1_EE9push_backEOS1_, symObjAddr: 0x510, symBinAddr: 0x1000046A0, symSize: 0x30 }
  - { offsetInCU: 0xAAAA, offset: 0xAAAA, size: 0x8, addend: 0x0, symName: __ZNSt6vectorISt4pairIiiESaIS1_EED1Ev, symObjAddr: 0x46C, symBinAddr: 0x1000045FC, symSize: 0x5C }
  - { offsetInCU: 0xAAB2, offset: 0xAAB2, size: 0x8, addend: 0x0, symName: __ZNSt4pairIiiEC1IiRiLb1EEEOT_OT0_, symObjAddr: 0x4C8, symBinAddr: 0x100004658, symSize: 0x48 }
  - { offsetInCU: 0xAB44, offset: 0xAB44, size: 0x8, addend: 0x0, symName: __ZNSt12_Vector_baseISt4pairIiiESaIS1_EED2Ev, symObjAddr: 0x41C, symBinAddr: 0x1000045AC, symSize: 0x50 }
  - { offsetInCU: 0xAB4C, offset: 0xAB4C, size: 0x8, addend: 0x0, symName: __ZNSt6vectorISt4pairIiiESaIS1_EED1Ev, symObjAddr: 0x46C, symBinAddr: 0x1000045FC, symSize: 0x5C }
  - { offsetInCU: 0xABC0, offset: 0xABC0, size: 0x8, addend: 0x0, symName: __ZNSt12_Vector_baseISt4pairIiiESaIS1_EE12_Vector_implC1Ev, symObjAddr: 0x3E4, symBinAddr: 0x100004574, symSize: 0x38 }
  - { offsetInCU: 0xABC8, offset: 0xABC8, size: 0x8, addend: 0x0, symName: __ZNSt12_Vector_baseISt4pairIiiESaIS1_EED2Ev, symObjAddr: 0x41C, symBinAddr: 0x1000045AC, symSize: 0x50 }
  - { offsetInCU: 0xAC0A, offset: 0xAC0A, size: 0x8, addend: 0x0, symName: _main, symObjAddr: 0xBC, symBinAddr: 0x10000424C, symSize: 0x328 }
  - { offsetInCU: 0xAC12, offset: 0xAC12, size: 0x8, addend: 0x0, symName: __ZNSt12_Vector_baseISt4pairIiiESaIS1_EE12_Vector_implC1Ev, symObjAddr: 0x3E4, symBinAddr: 0x100004574, symSize: 0x38 }
  - { offsetInCU: 0xADDC, offset: 0xADDC, size: 0x8, addend: 0x0, symName: __ZNSt6vectorISt4pairIiiESaIS1_EEC1Ev, symObjAddr: 0x9C, symBinAddr: 0x10000422C, symSize: 0x20 }
  - { offsetInCU: 0xADE4, offset: 0xADE4, size: 0x8, addend: 0x0, symName: _main, symObjAddr: 0xBC, symBinAddr: 0x10000424C, symSize: 0x328 }
  - { offsetInCU: 0xAE2A, offset: 0xAE2A, size: 0x8, addend: 0x0, symName: __ZNSt12_Vector_baseISt4pairIiiESaIS1_EEC2Ev, symObjAddr: 0x7C, symBinAddr: 0x10000420C, symSize: 0x20 }
  - { offsetInCU: 0xAE32, offset: 0xAE32, size: 0x8, addend: 0x0, symName: __ZNSt6vectorISt4pairIiiESaIS1_EEC1Ev, symObjAddr: 0x9C, symBinAddr: 0x10000422C, symSize: 0x20 }
  - { offsetInCU: 0xAE90, offset: 0xAE90, size: 0x8, addend: 0x0, symName: __ZNSt12_Vector_baseISt4pairIiiESaIS1_EE12_Vector_implD1Ev, symObjAddr: 0x50, symBinAddr: 0x1000041E0, symSize: 0x2C }
  - { offsetInCU: 0xAE98, offset: 0xAE98, size: 0x8, addend: 0x0, symName: __ZNSt12_Vector_baseISt4pairIiiESaIS1_EEC2Ev, symObjAddr: 0x7C, symBinAddr: 0x10000420C, symSize: 0x20 }
  - { offsetInCU: 0xAEFA, offset: 0xAEFA, size: 0x8, addend: 0x0, symName: __ZN9__gnu_cxx5__ops15__val_comp_iterENS0_15_Iter_less_iterE, symObjAddr: 0x38, symBinAddr: 0x1000041C8, symSize: 0x18 }
  - { offsetInCU: 0xAF02, offset: 0xAF02, size: 0x8, addend: 0x0, symName: __ZNSt12_Vector_baseISt4pairIiiESaIS1_EE12_Vector_implD1Ev, symObjAddr: 0x50, symBinAddr: 0x1000041E0, symSize: 0x2C }
  - { offsetInCU: 0xAF3F, offset: 0xAF3F, size: 0x8, addend: 0x0, symName: __ZN9__gnu_cxx5__ops14_Iter_less_valC1ENS0_15_Iter_less_iterE, symObjAddr: 0x20, symBinAddr: 0x1000041B0, symSize: 0x18 }
  - { offsetInCU: 0xAF47, offset: 0xAF47, size: 0x8, addend: 0x0, symName: __ZN9__gnu_cxx5__ops15__val_comp_iterENS0_15_Iter_less_iterE, symObjAddr: 0x38, symBinAddr: 0x1000041C8, symSize: 0x18 }
  - { offsetInCU: 0xAF7A, offset: 0xAF7A, size: 0x8, addend: 0x0, symName: __ZN9__gnu_cxx5__ops16__iter_less_iterEv, symObjAddr: 0x18, symBinAddr: 0x1000041A8, symSize: 0x8 }
  - { offsetInCU: 0xAF82, offset: 0xAF82, size: 0x8, addend: 0x0, symName: __ZN9__gnu_cxx5__ops14_Iter_less_valC1ENS0_15_Iter_less_iterE, symObjAddr: 0x20, symBinAddr: 0x1000041B0, symSize: 0x18 }
  - { offsetInCU: 0xAF75, offset: 0xAF75, size: 0x8, addend: 0x0, symName: __ZnwmPv, symObjAddr: 0x0, symBinAddr: 0x100004190, symSize: 0x18 }
  - { offsetInCU: 0xAF7D, offset: 0xAF7D, size: 0x8, addend: 0x0, symName: __ZN9__gnu_cxx5__ops16__iter_less_iterEv, symObjAddr: 0x18, symBinAddr: 0x1000041A8, symSize: 0x8 }
...
